
hello_linux:     file format elf32-littleriscv


Disassembly of section .text:

00000000 <_start>:
       0:	00000097          	auipc	ra,0x0
       4:	000080e7          	jalr	ra # 0 <_start>
       8:	00050793          	mv	a5,a0
       c:	00000517          	auipc	a0,0x0
      10:	00052503          	lw	a0,0(a0) # c <_start+0xc>
      14:	00012583          	lw	a1,0(sp)
      18:	00410613          	addi	a2,sp,4
      1c:	ff017113          	andi	sp,sp,-16
      20:	00000693          	li	a3,0
      24:	00000713          	li	a4,0
      28:	00010813          	mv	a6,sp
      2c:	00000097          	auipc	ra,0x0
      30:	000080e7          	jalr	ra # 2c <_start+0x2c>
      34:	00100073          	ebreak

00000038 <load_gp>:
      38:	00000197          	auipc	gp,0x0
      3c:	00018193          	mv	gp,gp
      40:	00008067          	ret

00000044 <deregister_tm_clones>:
      44:	00000537          	lui	a0,0x0
      48:	000007b7          	lui	a5,0x0
      4c:	00050713          	mv	a4,a0
      50:	00078793          	mv	a5,a5
      54:	00e78c63          	beq	a5,a4,6c <.L1>
      58:	000007b7          	lui	a5,0x0
      5c:	00078793          	mv	a5,a5
      60:	00078663          	beqz	a5,6c <.L1>
      64:	00050513          	mv	a0,a0
      68:	00078067          	jr	a5 # 0 <_start>

0000006c <.L1>:
      6c:	00008067          	ret

00000070 <register_tm_clones>:
      70:	000007b7          	lui	a5,0x0
      74:	00000537          	lui	a0,0x0
      78:	00078593          	mv	a1,a5
      7c:	00050793          	mv	a5,a0
      80:	40f585b3          	sub	a1,a1,a5
      84:	4025d593          	srai	a1,a1,0x2
      88:	00200793          	li	a5,2
      8c:	02f5c5b3          	div	a1,a1,a5
      90:	00058c63          	beqz	a1,a8 <.L6>
      94:	000007b7          	lui	a5,0x0
      98:	00078793          	mv	a5,a5
      9c:	00078663          	beqz	a5,a8 <.L6>
      a0:	00050513          	mv	a0,a0
      a4:	00078067          	jr	a5 # 0 <_start>

000000a8 <.L6>:
      a8:	00008067          	ret

000000ac <__do_global_dtors_aux>:
      ac:	ff010113          	addi	sp,sp,-16
      b0:	00812423          	sw	s0,8(sp)
      b4:	00000437          	lui	s0,0x0
      b8:	00044783          	lbu	a5,0(s0) # 0 <_start>
      bc:	00112623          	sw	ra,12(sp)
      c0:	02079863          	bnez	a5,f0 <.L14>
      c4:	00000097          	auipc	ra,0x0
      c8:	000080e7          	jalr	ra # c4 <__do_global_dtors_aux+0x18>
      cc:	000007b7          	lui	a5,0x0
      d0:	00078793          	mv	a5,a5
      d4:	00078a63          	beqz	a5,e8 <.L16>
      d8:	00000537          	lui	a0,0x0
      dc:	00050513          	mv	a0,a0
      e0:	00000097          	auipc	ra,0x0
      e4:	000080e7          	jalr	ra # e0 <__do_global_dtors_aux+0x34>

000000e8 <.L16>:
      e8:	00100793          	li	a5,1
      ec:	00f40023          	sb	a5,0(s0)

000000f0 <.L14>:
      f0:	00c12083          	lw	ra,12(sp)
      f4:	00812403          	lw	s0,8(sp)
      f8:	01010113          	addi	sp,sp,16
      fc:	00008067          	ret

00000100 <frame_dummy>:
     100:	000007b7          	lui	a5,0x0
     104:	00078793          	mv	a5,a5
     108:	02078663          	beqz	a5,134 <.L27>
     10c:	000005b7          	lui	a1,0x0
     110:	00000537          	lui	a0,0x0
     114:	ff010113          	addi	sp,sp,-16
     118:	00058593          	mv	a1,a1
     11c:	00050513          	mv	a0,a0
     120:	00112623          	sw	ra,12(sp)
     124:	00000097          	auipc	ra,0x0
     128:	000080e7          	jalr	ra # 124 <frame_dummy+0x24>
     12c:	00c12083          	lw	ra,12(sp)
     130:	01010113          	addi	sp,sp,16

00000134 <.L27>:
     134:	00000317          	auipc	t1,0x0
     138:	00030067          	jr	t1 # 134 <.L27>

0000013c <call_fini>:
     13c:	ff010113          	addi	sp,sp,-16
     140:	00812423          	sw	s0,8(sp)
     144:	00912223          	sw	s1,4(sp)
     148:	00000417          	auipc	s0,0x0
     14c:	00040413          	mv	s0,s0
     150:	00000497          	auipc	s1,0x0
     154:	00048493          	mv	s1,s1
     158:	40940433          	sub	s0,s0,s1
     15c:	40245413          	srai	s0,s0,0x2
     160:	01212023          	sw	s2,0(sp)
     164:	00112623          	sw	ra,12(sp)
     168:	fff40413          	addi	s0,s0,-1 # 147 <call_fini+0xb>
     16c:	fff00913          	li	s2,-1

00000170 <.L2>:
     170:	01241e63          	bne	s0,s2,18c <.L3>
     174:	00c12083          	lw	ra,12(sp)
     178:	00812403          	lw	s0,8(sp)
     17c:	00412483          	lw	s1,4(sp)
     180:	00012903          	lw	s2,0(sp)
     184:	01010113          	addi	sp,sp,16
     188:	00008067          	ret

0000018c <.L3>:
     18c:	00241793          	slli	a5,s0,0x2
     190:	00f487b3          	add	a5,s1,a5
     194:	0007a783          	lw	a5,0(a5) # 0 <_start>
     198:	fff40413          	addi	s0,s0,-1
     19c:	000780e7          	jalr	a5
     1a0:	fd1ff06f          	j	170 <.L2>

000001a4 <__libc_start_call_main>:
     1a4:	f9010113          	addi	sp,sp,-112
     1a8:	00a12223          	sw	a0,4(sp)
     1ac:	01410513          	addi	a0,sp,20
     1b0:	06112623          	sw	ra,108(sp)
     1b4:	00b12423          	sw	a1,8(sp)
     1b8:	00c12623          	sw	a2,12(sp)
     1bc:	00000097          	auipc	ra,0x0
     1c0:	000080e7          	jalr	ra # 1bc <__libc_start_call_main+0x18>
     1c4:	02051e63          	bnez	a0,200 <.L7>
     1c8:	b9c22703          	lw	a4,-1124(tp) # fffffb9c <.L53+0xfffb1db0>
     1cc:	00c12583          	lw	a1,12(sp)
     1d0:	00812503          	lw	a0,8(sp)
     1d4:	04e12823          	sw	a4,80(sp)
     1d8:	b9822703          	lw	a4,-1128(tp) # fffffb98 <.L53+0xfffb1dac>
     1dc:	00412783          	lw	a5,4(sp)
     1e0:	00000617          	auipc	a2,0x0
     1e4:	00062603          	lw	a2,0(a2) # 1e0 <__libc_start_call_main+0x3c>
     1e8:	04e12a23          	sw	a4,84(sp)
     1ec:	01410713          	addi	a4,sp,20
     1f0:	b8e22e23          	sw	a4,-1124(tp) # fffffb9c <.L53+0xfffb1db0>
     1f4:	000780e7          	jalr	a5

000001f8 <.L8>:
     1f8:	00000097          	auipc	ra,0x0
     1fc:	000080e7          	jalr	ra # 1f8 <.L8>

00000200 <.L7>:
     200:	00000097          	auipc	ra,0x0
     204:	000080e7          	jalr	ra # 200 <.L7>
     208:	00000717          	auipc	a4,0x0
     20c:	00070713          	mv	a4,a4
     210:	fff00693          	li	a3,-1
     214:	04d727af          	amoadd.w.aq	a5,a3,(a4)
     218:	fff78793          	addi	a5,a5,-1
     21c:	00078a63          	beqz	a5,230 <.L10>

00000220 <.L9>:
     220:	05d00893          	li	a7,93
     224:	00000513          	li	a0,0
     228:	00000073          	ecall
     22c:	ff5ff06f          	j	220 <.L9>

00000230 <.L10>:
     230:	00000513          	li	a0,0
     234:	fc5ff06f          	j	1f8 <.L8>

00000238 <__libc_start_main>:
     238:	00158713          	addi	a4,a1,1 # 1 <_start+0x1>
     23c:	fc010113          	addi	sp,sp,-64
     240:	00271713          	slli	a4,a4,0x2
     244:	02812c23          	sw	s0,56(sp)
     248:	02912a23          	sw	s1,52(sp)
     24c:	03312623          	sw	s3,44(sp)
     250:	03412423          	sw	s4,40(sp)
     254:	03512223          	sw	s5,36(sp)
     258:	02112e23          	sw	ra,60(sp)
     25c:	03212823          	sw	s2,48(sp)
     260:	03612023          	sw	s6,32(sp)
     264:	01712e23          	sw	s7,28(sp)
     268:	01812c23          	sw	s8,24(sp)
     26c:	01912a23          	sw	s9,20(sp)
     270:	00050993          	mv	s3,a0
     274:	00000a97          	auipc	s5,0x0
     278:	000a8a93          	mv	s5,s5
     27c:	00e60533          	add	a0,a2,a4
     280:	00078a13          	mv	s4,a5
     284:	00058413          	mv	s0,a1
     288:	00060493          	mv	s1,a2
     28c:	00aaa023          	sw	a0,0(s5) # 274 <__libc_start_main+0x3c>
     290:	00000797          	auipc	a5,0x0
     294:	0107a023          	sw	a6,0(a5) # 290 <__libc_start_main+0x58>

00000298 <.L13>:
     298:	00052783          	lw	a5,0(a0) # 0 <_start>
     29c:	00450513          	addi	a0,a0,4
     2a0:	fe079ce3          	bnez	a5,298 <.L13>
     2a4:	00000097          	auipc	ra,0x0
     2a8:	000080e7          	jalr	ra # 2a4 <.L13+0xc>
     2ac:	00000697          	auipc	a3,0x0
     2b0:	00068693          	mv	a3,a3
     2b4:	0006a783          	lw	a5,0(a3) # 2ac <.L13+0x14>
     2b8:	04079a63          	bnez	a5,30c <.L14>
     2bc:	00000797          	auipc	a5,0x0
     2c0:	00078793          	mv	a5,a5
     2c4:	02a7d603          	lhu	a2,42(a5) # 2e6 <.L13+0x4e>
     2c8:	02000713          	li	a4,32
     2cc:	02e60463          	beq	a2,a4,2f4 <.L15>
     2d0:	00000697          	auipc	a3,0x0
     2d4:	00068693          	mv	a3,a3
     2d8:	11a00613          	li	a2,282
     2dc:	00000597          	auipc	a1,0x0
     2e0:	00058593          	mv	a1,a1
     2e4:	00000517          	auipc	a0,0x0
     2e8:	00050513          	mv	a0,a0
     2ec:	00000097          	auipc	ra,0x0
     2f0:	000080e7          	jalr	ra # 2ec <.L13+0x54>

000002f4 <.L15>:
     2f4:	01c7a703          	lw	a4,28(a5)
     2f8:	00f70733          	add	a4,a4,a5
     2fc:	02c7d783          	lhu	a5,44(a5)
     300:	00e6a023          	sw	a4,0(a3) # 2d0 <.L13+0x38>
     304:	00000717          	auipc	a4,0x0
     308:	00f72023          	sw	a5,0(a4) # 304 <.L15+0x10>

0000030c <.L14>:
     30c:	000aa503          	lw	a0,0(s5)
     310:	00000917          	auipc	s2,0x0
     314:	00092903          	lw	s2,0(s2) # 310 <.L14+0x4>
     318:	00000b17          	auipc	s6,0x0
     31c:	000b2b03          	lw	s6,0(s6) # 318 <.L14+0xc>
     320:	00000097          	auipc	ra,0x0
     324:	000080e7          	jalr	ra # 320 <.L14+0x14>
     328:	03a00b93          	li	s7,58
     32c:	00000c17          	auipc	s8,0x0
     330:	000c0c13          	mv	s8,s8

00000334 <.L16>:
     334:	15696663          	bltu	s2,s6,480 <.L18>
     338:	00000097          	auipc	ra,0x0
     33c:	000080e7          	jalr	ra # 338 <.L16+0x4>
     340:	00000b17          	auipc	s6,0x0
     344:	000b0b13          	mv	s6,s6
     348:	000b2683          	lw	a3,0(s6) # 340 <.L16+0xc>
     34c:	00000917          	auipc	s2,0x0
     350:	00090913          	mv	s2,s2
     354:	0016c703          	lbu	a4,1(a3)
     358:	0006c783          	lbu	a5,0(a3)
     35c:	00871713          	slli	a4,a4,0x8
     360:	00f76733          	or	a4,a4,a5
     364:	0026c783          	lbu	a5,2(a3)
     368:	01079793          	slli	a5,a5,0x10
     36c:	00e7e7b3          	or	a5,a5,a4
     370:	0036c703          	lbu	a4,3(a3)
     374:	01871713          	slli	a4,a4,0x18
     378:	00f76733          	or	a4,a4,a5
     37c:	f0077713          	andi	a4,a4,-256
     380:	00e92023          	sw	a4,0(s2) # 34c <.L16+0x18>
     384:	00000797          	auipc	a5,0x0
     388:	0007a783          	lw	a5,0(a5) # 384 <.L16+0x50>
     38c:	00078463          	beqz	a5,394 <.L19>
     390:	000780e7          	jalr	a5

00000394 <.L19>:
     394:	000b2583          	lw	a1,0(s6)
     398:	00400613          	li	a2,4
     39c:	00c10513          	addi	a0,sp,12
     3a0:	00458593          	addi	a1,a1,4 # 2e0 <.L13+0x48>
     3a4:	00000097          	auipc	ra,0x0
     3a8:	000080e7          	jalr	ra # 3a4 <.L19+0x10>
     3ac:	00c12783          	lw	a5,12(sp)
     3b0:	00f92223          	sw	a5,4(s2)
     3b4:	000a0c63          	beqz	s4,3cc <.L20>
     3b8:	00000613          	li	a2,0
     3bc:	00000593          	li	a1,0
     3c0:	000a0513          	mv	a0,s4
     3c4:	00000097          	auipc	ra,0x0
     3c8:	000080e7          	jalr	ra # 3c4 <.L19+0x30>

000003cc <.L20>:
     3cc:	00100513          	li	a0,1
     3d0:	00000097          	auipc	ra,0x0
     3d4:	000080e7          	jalr	ra # 3d0 <.L20+0x4>
     3d8:	000aa603          	lw	a2,0(s5)
     3dc:	00048593          	mv	a1,s1
     3e0:	00040513          	mv	a0,s0
     3e4:	00000097          	auipc	ra,0x0
     3e8:	000080e7          	jalr	ra # 3e4 <.L20+0x18>
     3ec:	00000613          	li	a2,0
     3f0:	00000593          	li	a1,0
     3f4:	00000517          	auipc	a0,0x0
     3f8:	00050513          	mv	a0,a0
     3fc:	00000097          	auipc	ra,0x0
     400:	000080e7          	jalr	ra # 3fc <.L20+0x30>
     404:	00000797          	auipc	a5,0x0
     408:	0007a783          	lw	a5,0(a5) # 404 <.L20+0x38>
     40c:	00078663          	beqz	a5,418 <.L21>
     410:	00000097          	auipc	ra,0x0
     414:	000080e7          	jalr	ra # 410 <.L20+0x44>

00000418 <.L21>:
     418:	00000917          	auipc	s2,0x0
     41c:	00090913          	mv	s2,s2
     420:	00000a17          	auipc	s4,0x0
     424:	000a0a13          	mv	s4,s4
     428:	000aaa83          	lw	s5,0(s5)
     42c:	412a0a33          	sub	s4,s4,s2
     430:	402a5a13          	srai	s4,s4,0x2
     434:	00000b13          	li	s6,0

00000438 <.L22>:
     438:	096a1263          	bne	s4,s6,4bc <.L23>
     43c:	00000917          	auipc	s2,0x0
     440:	00090913          	mv	s2,s2
     444:	00000a17          	auipc	s4,0x0
     448:	000a0a13          	mv	s4,s4
     44c:	412a0a33          	sub	s4,s4,s2
     450:	402a5a13          	srai	s4,s4,0x2
     454:	00000b13          	li	s6,0

00000458 <.L24>:
     458:	096a1263          	bne	s4,s6,4dc <.L25>
     45c:	00000593          	li	a1,0
     460:	00000513          	li	a0,0
     464:	00000097          	auipc	ra,0x0
     468:	000080e7          	jalr	ra # 464 <.L24+0xc>
     46c:	00048613          	mv	a2,s1
     470:	00040593          	mv	a1,s0
     474:	00098513          	mv	a0,s3
     478:	00000097          	auipc	ra,0x0
     47c:	000080e7          	jalr	ra # 478 <.L24+0x20>

00000480 <.L18>:
     480:	00494783          	lbu	a5,4(s2) # 440 <.L22+0x8>
     484:	00092c83          	lw	s9,0(s2)
     488:	03779263          	bne	a5,s7,4ac <.L17>
     48c:	00892783          	lw	a5,8(s2)
     490:	000c2503          	lw	a0,0(s8) # 32c <.L14+0x20>
     494:	004c2583          	lw	a1,4(s8)
     498:	00000613          	li	a2,0
     49c:	00c90913          	addi	s2,s2,12
     4a0:	000780e7          	jalr	a5
     4a4:	00aca023          	sw	a0,0(s9)
     4a8:	e8dff06f          	j	334 <.L16>

000004ac <.L17>:
     4ac:	00000517          	auipc	a0,0x0
     4b0:	00050513          	mv	a0,a0
     4b4:	00000097          	auipc	ra,0x0
     4b8:	000080e7          	jalr	ra # 4b4 <.L17+0x8>

000004bc <.L23>:
     4bc:	00092783          	lw	a5,0(s2)
     4c0:	000a8613          	mv	a2,s5
     4c4:	00048593          	mv	a1,s1
     4c8:	00040513          	mv	a0,s0
     4cc:	000780e7          	jalr	a5
     4d0:	001b0b13          	addi	s6,s6,1
     4d4:	00490913          	addi	s2,s2,4
     4d8:	f61ff06f          	j	438 <.L22>

000004dc <.L25>:
     4dc:	00092783          	lw	a5,0(s2)
     4e0:	000a8613          	mv	a2,s5
     4e4:	00048593          	mv	a1,s1
     4e8:	00040513          	mv	a0,s0
     4ec:	000780e7          	jalr	a5
     4f0:	001b0b13          	addi	s6,s6,1
     4f4:	00490913          	addi	s2,s2,4
     4f8:	f61ff06f          	j	458 <.L24>

000004fc <check_one_fd>:
     4fc:	f6010113          	addi	sp,sp,-160
     500:	09212823          	sw	s2,144(sp)
     504:	00058913          	mv	s2,a1
     508:	00100593          	li	a1,1
     50c:	09312623          	sw	s3,140(sp)
     510:	08112e23          	sw	ra,156(sp)
     514:	08812c23          	sw	s0,152(sp)
     518:	08912a23          	sw	s1,148(sp)
     51c:	00050993          	mv	s3,a0
     520:	00000097          	auipc	ra,0x0
     524:	000080e7          	jalr	ra # 520 <check_one_fd+0x24>
     528:	fff00793          	li	a5,-1
     52c:	0af51a63          	bne	a0,a5,5e0 <.L1>
     530:	00000797          	auipc	a5,0x0
     534:	0007a783          	lw	a5,0(a5) # 530 <check_one_fd+0x34>
     538:	004787b3          	add	a5,a5,tp
     53c:	0007a703          	lw	a4,0(a5)
     540:	00900793          	li	a5,9
     544:	08f71e63          	bne	a4,a5,5e0 <.L1>
     548:	000207b7          	lui	a5,0x20
     54c:	02f90e63          	beq	s2,a5,588 <.L3>
     550:	00700593          	li	a1,7
     554:	00100513          	li	a0,1
     558:	00000097          	auipc	ra,0x0
     55c:	000080e7          	jalr	ra # 558 <check_one_fd+0x5c>
     560:	00050493          	mv	s1,a0
     564:	00058413          	mv	s0,a1
     568:	00000517          	auipc	a0,0x0
     56c:	00050513          	mv	a0,a0

00000570 <.L4>:
     570:	00000613          	li	a2,0
     574:	00090593          	mv	a1,s2
     578:	00000097          	auipc	ra,0x0
     57c:	000080e7          	jalr	ra # 578 <.L4+0x8>
     580:	02a98663          	beq	s3,a0,5ac <.L5>

00000584 <.L6>:
     584:	00100073          	ebreak

00000588 <.L3>:
     588:	00300593          	li	a1,3
     58c:	00100513          	li	a0,1
     590:	00000097          	auipc	ra,0x0
     594:	000080e7          	jalr	ra # 590 <.L3+0x8>
     598:	00050493          	mv	s1,a0
     59c:	00058413          	mv	s0,a1
     5a0:	00000517          	auipc	a0,0x0
     5a4:	00050513          	mv	a0,a0
     5a8:	fc9ff06f          	j	570 <.L4>

000005ac <.L5>:
     5ac:	00010593          	mv	a1,sp
     5b0:	00000097          	auipc	ra,0x0
     5b4:	000080e7          	jalr	ra # 5b0 <.L5+0x4>
     5b8:	fc0516e3          	bnez	a0,584 <.L6>
     5bc:	01012703          	lw	a4,16(sp)
     5c0:	0000f7b7          	lui	a5,0xf
     5c4:	00e7f7b3          	and	a5,a5,a4
     5c8:	00002737          	lui	a4,0x2
     5cc:	fae79ce3          	bne	a5,a4,584 <.L6>
     5d0:	02012783          	lw	a5,32(sp)
     5d4:	fa9798e3          	bne	a5,s1,584 <.L6>
     5d8:	02412783          	lw	a5,36(sp)
     5dc:	fa8794e3          	bne	a5,s0,584 <.L6>

000005e0 <.L1>:
     5e0:	09c12083          	lw	ra,156(sp)
     5e4:	09812403          	lw	s0,152(sp)
     5e8:	09412483          	lw	s1,148(sp)
     5ec:	09012903          	lw	s2,144(sp)
     5f0:	08c12983          	lw	s3,140(sp)
     5f4:	0a010113          	addi	sp,sp,160
     5f8:	00008067          	ret

000005fc <__libc_check_standard_fds>:
     5fc:	000205b7          	lui	a1,0x20
     600:	ff010113          	addi	sp,sp,-16
     604:	00158593          	addi	a1,a1,1 # 20001 <.L1^B4+0xd>
     608:	00000513          	li	a0,0
     60c:	00112623          	sw	ra,12(sp)
     610:	00000097          	auipc	ra,0x0
     614:	000080e7          	jalr	ra # 610 <__libc_check_standard_fds+0x14>
     618:	000205b7          	lui	a1,0x20
     61c:	00100513          	li	a0,1
     620:	00000097          	auipc	ra,0x0
     624:	000080e7          	jalr	ra # 620 <__libc_check_standard_fds+0x24>
     628:	00c12083          	lw	ra,12(sp)
     62c:	000205b7          	lui	a1,0x20
     630:	00200513          	li	a0,2
     634:	01010113          	addi	sp,sp,16
     638:	00000317          	auipc	t1,0x0
     63c:	00030067          	jr	t1 # 638 <__libc_check_standard_fds+0x3c>

00000640 <__libc_setup_tls>:
     640:	fd010113          	addi	sp,sp,-48
     644:	00000797          	auipc	a5,0x0
     648:	0007a783          	lw	a5,0(a5) # 644 <__libc_setup_tls+0x4>
     64c:	02812423          	sw	s0,40(sp)
     650:	01812423          	sw	s8,8(sp)
     654:	02112623          	sw	ra,44(sp)
     658:	0007ac03          	lw	s8,0(a5)
     65c:	02912223          	sw	s1,36(sp)
     660:	03212023          	sw	s2,32(sp)
     664:	01312e23          	sw	s3,28(sp)
     668:	01412c23          	sw	s4,24(sp)
     66c:	01512a23          	sw	s5,20(sp)
     670:	01612823          	sw	s6,16(sp)
     674:	01712623          	sw	s7,12(sp)
     678:	01912223          	sw	s9,4(sp)
     67c:	01a12023          	sw	s10,0(sp)
     680:	00000097          	auipc	ra,0x0
     684:	000080e7          	jalr	ra # 680 <__libc_setup_tls+0x40>
     688:	00000797          	auipc	a5,0x0
     68c:	0007a783          	lw	a5,0(a5) # 688 <__libc_setup_tls+0x48>
     690:	0007a403          	lw	s0,0(a5)
     694:	02040c63          	beqz	s0,6cc <.L2>
     698:	00000797          	auipc	a5,0x0
     69c:	0007a783          	lw	a5,0(a5) # 698 <__libc_setup_tls+0x58>
     6a0:	0007a783          	lw	a5,0(a5)
     6a4:	00700713          	li	a4,7
     6a8:	00579793          	slli	a5,a5,0x5
     6ac:	00f407b3          	add	a5,s0,a5

000006b0 <.L3>:
     6b0:	04f46463          	bltu	s0,a5,6f8 <.L8>
     6b4:	02000b13          	li	s6,32
     6b8:	00000993          	li	s3,0
     6bc:	00000413          	li	s0,0
     6c0:	00000a93          	li	s5,0
     6c4:	00000d13          	li	s10,0
     6c8:	0640006f          	j	72c <.L7>

000006cc <.L2>:
     6cc:	00000513          	li	a0,0
     6d0:	00000097          	auipc	ra,0x0
     6d4:	000080e7          	jalr	ra # 6d0 <.L2+0x4>
     6d8:	02000b13          	li	s6,32
     6dc:	00000993          	li	s3,0
     6e0:	00000a93          	li	s5,0
     6e4:	00000d13          	li	s10,0

000006e8 <.L11>:
     6e8:	00000a13          	li	s4,0
     6ec:	00100493          	li	s1,1
     6f0:	00100c93          	li	s9,1
     6f4:	0540006f          	j	748 <.L9>

000006f8 <.L8>:
     6f8:	00042683          	lw	a3,0(s0)
     6fc:	08e69663          	bne	a3,a4,788 <.L5>
     700:	00842703          	lw	a4,8(s0)
     704:	000c2783          	lw	a5,0(s8)
     708:	01c42983          	lw	s3,28(s0)
     70c:	01442d03          	lw	s10,20(s0)
     710:	00e787b3          	add	a5,a5,a4
     714:	02000713          	li	a4,32
     718:	01042a83          	lw	s5,16(s0)
     71c:	00098b13          	mv	s6,s3
     720:	00e9f463          	bgeu	s3,a4,728 <.L6>
     724:	02000b13          	li	s6,32

00000728 <.L6>:
     728:	00078413          	mv	s0,a5

0000072c <.L7>:
     72c:	00000513          	li	a0,0
     730:	00000097          	auipc	ra,0x0
     734:	000080e7          	jalr	ra # 730 <.L7+0x4>
     738:	fa0988e3          	beqz	s3,6e8 <.L11>
     73c:	fff98a13          	addi	s4,s3,-1
     740:	00098493          	mv	s1,s3
     744:	00098c93          	mv	s9,s3

00000748 <.L9>:
     748:	029a54b3          	divu	s1,s4,s1
     74c:	00000b97          	auipc	s7,0x0
     750:	000b8b93          	mv	s7,s7
     754:	000ba503          	lw	a0,0(s7) # 74c <.L9+0x4>
     758:	4e050513          	addi	a0,a0,1248 # a80 <__dcgettext+0x8>
     75c:	01a50533          	add	a0,a0,s10
     760:	01650533          	add	a0,a0,s6
     764:	039484b3          	mul	s1,s1,s9
     768:	00950533          	add	a0,a0,s1
     76c:	00000097          	auipc	ra,0x0
     770:	000080e7          	jalr	ra # 76c <.L9+0x24>
     774:	00051e63          	bnez	a0,790 <.L10>
     778:	00000517          	auipc	a0,0x0
     77c:	00050513          	mv	a0,a0
     780:	00000097          	auipc	ra,0x0
     784:	000080e7          	jalr	ra # 780 <.L9+0x38>

00000788 <.L5>:
     788:	02040413          	addi	s0,s0,32
     78c:	f25ff06f          	j	6b0 <.L3>

00000790 <.L10>:
     790:	01650933          	add	s2,a0,s6
     794:	416007b3          	neg	a5,s6
     798:	4df90913          	addi	s2,s2,1247
     79c:	00f97933          	and	s2,s2,a5
     7a0:	00990533          	add	a0,s2,s1
     7a4:	03e00793          	li	a5,62
     7a8:	249c2823          	sw	s1,592(s8)
     7ac:	000a8613          	mv	a2,s5
     7b0:	00040593          	mv	a1,s0
     7b4:	00fba223          	sw	a5,4(s7)
     7b8:	00abaa23          	sw	a0,20(s7)
     7bc:	00000797          	auipc	a5,0x0
     7c0:	0007a023          	sw	zero,0(a5) # 7bc <.L10+0x2c>
     7c4:	00000097          	auipc	ra,0x0
     7c8:	000080e7          	jalr	ra # 7c4 <.L10+0x34>
     7cc:	00000797          	auipc	a5,0x0
     7d0:	00078793          	mv	a5,a5
     7d4:	fef92c23          	sw	a5,-8(s2)
     7d8:	00090213          	mv	tp,s2
     7dc:	01aa0a33          	add	s4,s4,s10
     7e0:	00000097          	auipc	ra,0x0
     7e4:	000080e7          	jalr	ra # 7e0 <.L10+0x50>
     7e8:	039a5a33          	divu	s4,s4,s9
     7ec:	04000793          	li	a5,64
     7f0:	20fba223          	sw	a5,516(s7)
     7f4:	00000797          	auipc	a5,0x0
     7f8:	00078793          	mv	a5,a5
     7fc:	40fba823          	sw	a5,1040(s7)
     800:	228c2e23          	sw	s0,572(s8)
     804:	02c12083          	lw	ra,44(sp)
     808:	02812403          	lw	s0,40(sp)
     80c:	00100713          	li	a4,1
     810:	253c2423          	sw	s3,584(s8)
     814:	25ac2223          	sw	s10,580(s8)
     818:	255c2023          	sw	s5,576(s8)
     81c:	218bac23          	sw	s8,536(s7)
     820:	416bae23          	sw	s6,1052(s7)
     824:	24ec2a23          	sw	a4,596(s8)
     828:	40eba623          	sw	a4,1036(s7)
     82c:	42eba023          	sw	a4,1056(s7)
     830:	02012903          	lw	s2,32(sp)
     834:	01c12983          	lw	s3,28(sp)
     838:	01412a83          	lw	s5,20(sp)
     83c:	01012b03          	lw	s6,16(sp)
     840:	00812c03          	lw	s8,8(sp)
     844:	00012d03          	lw	s10,0(sp)
     848:	034c87b3          	mul	a5,s9,s4
     84c:	01812a03          	lw	s4,24(sp)
     850:	00412c83          	lw	s9,4(sp)
     854:	00f484b3          	add	s1,s1,a5
     858:	000ba783          	lw	a5,0(s7)
     85c:	409bac23          	sw	s1,1048(s7)
     860:	01f78793          	addi	a5,a5,31 # 813 <.L10+0x83>
     864:	009787b3          	add	a5,a5,s1
     868:	fe07f793          	andi	a5,a5,-32
     86c:	40fbaa23          	sw	a5,1044(s7)
     870:	02412483          	lw	s1,36(sp)
     874:	00c12b83          	lw	s7,12(sp)
     878:	03010113          	addi	sp,sp,48
     87c:	00008067          	ret

00000880 <__tls_get_addr>:
     880:	ff822683          	lw	a3,-8(tp) # fffffff8 <.L53+0xfffb220c>
     884:	00452783          	lw	a5,4(a0) # 77c <.L9+0x34>
     888:	00001737          	lui	a4,0x1
     88c:	0086a503          	lw	a0,8(a3)
     890:	80070713          	addi	a4,a4,-2048 # 800 <.L10+0x70>
     894:	00e787b3          	add	a5,a5,a4
     898:	00f50533          	add	a0,a0,a5
     89c:	00008067          	ret

000008a0 <__assert_fail_base>:
     8a0:	fc010113          	addi	sp,sp,-64
     8a4:	02812c23          	sw	s0,56(sp)
     8a8:	03212823          	sw	s2,48(sp)
     8ac:	00050413          	mv	s0,a0
     8b0:	00058913          	mv	s2,a1
     8b4:	00100513          	li	a0,1
     8b8:	00000593          	li	a1,0
     8bc:	02912a23          	sw	s1,52(sp)
     8c0:	00d12e23          	sw	a3,28(sp)
     8c4:	00060493          	mv	s1,a2
     8c8:	00e12c23          	sw	a4,24(sp)
     8cc:	02112e23          	sw	ra,60(sp)
     8d0:	00000097          	auipc	ra,0x0
     8d4:	000080e7          	jalr	ra # 8d0 <__assert_fail_base+0x30>
     8d8:	00000717          	auipc	a4,0x0
     8dc:	00072703          	lw	a4,0(a4) # 8d8 <__assert_fail_base+0x38>
     8e0:	00072603          	lw	a2,0(a4)
     8e4:	01812803          	lw	a6,24(sp)
     8e8:	01c12783          	lw	a5,28(sp)
     8ec:	00064703          	lbu	a4,0(a2)
     8f0:	00000697          	auipc	a3,0x0
     8f4:	00068693          	mv	a3,a3
     8f8:	00071663          	bnez	a4,904 <.L2>
     8fc:	00000697          	auipc	a3,0x0
     900:	00068693          	mv	a3,a3

00000904 <.L2>:
     904:	00000897          	auipc	a7,0x0
     908:	00088893          	mv	a7,a7
     90c:	00081863          	bnez	a6,91c <.L3>
     910:	00000817          	auipc	a6,0x0
     914:	00080813          	mv	a6,a6
     918:	00080893          	mv	a7,a6

0000091c <.L3>:
     91c:	02c10713          	addi	a4,sp,44
     920:	00e12223          	sw	a4,4(sp)
     924:	01212023          	sw	s2,0(sp)
     928:	00048713          	mv	a4,s1
     92c:	00040593          	mv	a1,s0
     930:	02810513          	addi	a0,sp,40
     934:	00000097          	auipc	ra,0x0
     938:	000080e7          	jalr	ra # 934 <.L3+0x18>
     93c:	0c054463          	bltz	a0,a04 <.L4>
     940:	02812603          	lw	a2,40(sp)
     944:	00000597          	auipc	a1,0x0
     948:	00058593          	mv	a1,a1
     94c:	00000513          	li	a0,0
     950:	00000097          	auipc	ra,0x0
     954:	000080e7          	jalr	ra # 950 <.L3+0x34>
     958:	00000797          	auipc	a5,0x0
     95c:	0007a783          	lw	a5,0(a5) # 958 <.L3+0x3c>
     960:	0007a503          	lw	a0,0(a5)
     964:	00000097          	auipc	ra,0x0
     968:	000080e7          	jalr	ra # 964 <.L3+0x48>
     96c:	00000797          	auipc	a5,0x0
     970:	0007a783          	lw	a5,0(a5) # 96c <.L3+0x50>
     974:	0007a783          	lw	a5,0(a5)
     978:	02c12583          	lw	a1,44(sp)
     97c:	00000813          	li	a6,0
     980:	fff00713          	li	a4,-1
     984:	00b785b3          	add	a1,a5,a1
     988:	40f007b3          	neg	a5,a5
     98c:	00f5f5b3          	and	a1,a1,a5
     990:	02200693          	li	a3,34
     994:	00000793          	li	a5,0
     998:	00300613          	li	a2,3
     99c:	00000513          	li	a0,0
     9a0:	02b12623          	sw	a1,44(sp)
     9a4:	00000097          	auipc	ra,0x0
     9a8:	000080e7          	jalr	ra # 9a4 <.L3+0x88>
     9ac:	fff00793          	li	a5,-1
     9b0:	00050413          	mv	s0,a0
     9b4:	02f50e63          	beq	a0,a5,9f0 <.L6>
     9b8:	02c12783          	lw	a5,44(sp)
     9bc:	02812583          	lw	a1,40(sp)
     9c0:	00450513          	addi	a0,a0,4
     9c4:	fef52e23          	sw	a5,-4(a0)
     9c8:	00000097          	auipc	ra,0x0
     9cc:	000080e7          	jalr	ra # 9c8 <.L3+0xac>
     9d0:	00000797          	auipc	a5,0x0
     9d4:	00078793          	mv	a5,a5
     9d8:	00040513          	mv	a0,s0
     9dc:	0ca7a52f          	amoswap.w.aq	a0,a0,(a5)
     9e0:	00050863          	beqz	a0,9f0 <.L6>
     9e4:	00052583          	lw	a1,0(a0)
     9e8:	00000097          	auipc	ra,0x0
     9ec:	000080e7          	jalr	ra # 9e8 <.L3+0xcc>

000009f0 <.L6>:
     9f0:	02812503          	lw	a0,40(sp)
     9f4:	00000097          	auipc	ra,0x0
     9f8:	000080e7          	jalr	ra # 9f4 <.L6+0x4>

000009fc <.L8>:
     9fc:	00000097          	auipc	ra,0x0
     a00:	000080e7          	jalr	ra # 9fc <.L8>

00000a04 <.L4>:
     a04:	01200613          	li	a2,18
     a08:	00000597          	auipc	a1,0x0
     a0c:	00058593          	mv	a1,a1
     a10:	00200513          	li	a0,2
     a14:	00000097          	auipc	ra,0x0
     a18:	000080e7          	jalr	ra # a14 <.L4+0x10>
     a1c:	fe1ff06f          	j	9fc <.L8>

00000a20 <__assert_fail>:
     a20:	fe010113          	addi	sp,sp,-32
     a24:	00812c23          	sw	s0,24(sp)
     a28:	00912a23          	sw	s1,20(sp)
     a2c:	01212823          	sw	s2,16(sp)
     a30:	00050413          	mv	s0,a0
     a34:	00058493          	mv	s1,a1
     a38:	00060913          	mv	s2,a2
     a3c:	00000597          	auipc	a1,0x0
     a40:	00058593          	mv	a1,a1
     a44:	00500613          	li	a2,5
     a48:	00000517          	auipc	a0,0x0
     a4c:	00050513          	mv	a0,a0
     a50:	00d12623          	sw	a3,12(sp)
     a54:	00112e23          	sw	ra,28(sp)
     a58:	00000097          	auipc	ra,0x0
     a5c:	000080e7          	jalr	ra # a58 <__assert_fail+0x38>
     a60:	00c12703          	lw	a4,12(sp)
     a64:	00090693          	mv	a3,s2
     a68:	00048613          	mv	a2,s1
     a6c:	00040593          	mv	a1,s0
     a70:	00000097          	auipc	ra,0x0
     a74:	000080e7          	jalr	ra # a70 <__assert_fail+0x50>

00000a78 <__dcgettext>:
     a78:	00060793          	mv	a5,a2
     a7c:	00000713          	li	a4,0
     a80:	00000693          	li	a3,0
     a84:	00000613          	li	a2,0
     a88:	00000317          	auipc	t1,0x0
     a8c:	00030067          	jr	t1 # a88 <__dcgettext+0x10>

00000a90 <plural_eval>:
     a90:	fe010113          	addi	sp,sp,-32
     a94:	00812c23          	sw	s0,24(sp)
     a98:	00912a23          	sw	s1,20(sp)
     a9c:	01212823          	sw	s2,16(sp)
     aa0:	00112e23          	sw	ra,28(sp)
     aa4:	00050913          	mv	s2,a0
     aa8:	00200413          	li	s0,2
     aac:	00300493          	li	s1,3

00000ab0 <.L28>:
     ab0:	00092783          	lw	a5,0(s2)
     ab4:	08878863          	beq	a5,s0,b44 <.L2>
     ab8:	00f44c63          	blt	s0,a5,ad0 <.L3>
     abc:	04078263          	beqz	a5,b00 <.L4>
     ac0:	00100713          	li	a4,1
     ac4:	06e78663          	beq	a5,a4,b30 <.L5>

00000ac8 <.L6>:
     ac8:	00000593          	li	a1,0
     acc:	0480006f          	j	b14 <.L8>

00000ad0 <.L3>:
     ad0:	fe979ce3          	bne	a5,s1,ac8 <.L6>
     ad4:	00892503          	lw	a0,8(s2)
     ad8:	00b12623          	sw	a1,12(sp)
     adc:	00000097          	auipc	ra,0x0
     ae0:	000080e7          	jalr	ra # adc <.L3+0xc>
     ae4:	00153513          	seqz	a0,a0
     ae8:	00150513          	addi	a0,a0,1 # a49 <__assert_fail+0x29>
     aec:	00251513          	slli	a0,a0,0x2
     af0:	00a90933          	add	s2,s2,a0
     af4:	00892903          	lw	s2,8(s2)
     af8:	00c12583          	lw	a1,12(sp)
     afc:	fb5ff06f          	j	ab0 <.L28>

00000b00 <.L4>:
     b00:	00492783          	lw	a5,4(s2)
     b04:	00078863          	beqz	a5,b14 <.L8>
     b08:	00100713          	li	a4,1
     b0c:	fae79ee3          	bne	a5,a4,ac8 <.L6>
     b10:	00892583          	lw	a1,8(s2)

00000b14 <.L8>:
     b14:	01c12083          	lw	ra,28(sp)
     b18:	01812403          	lw	s0,24(sp)
     b1c:	01412483          	lw	s1,20(sp)
     b20:	01012903          	lw	s2,16(sp)
     b24:	00058513          	mv	a0,a1
     b28:	02010113          	addi	sp,sp,32
     b2c:	00008067          	ret

00000b30 <.L5>:
     b30:	00892503          	lw	a0,8(s2)
     b34:	00000097          	auipc	ra,0x0
     b38:	000080e7          	jalr	ra # b34 <.L5+0x4>
     b3c:	00153593          	seqz	a1,a0
     b40:	fd5ff06f          	j	b14 <.L8>

00000b44 <.L2>:
     b44:	00892503          	lw	a0,8(s2)
     b48:	00b12623          	sw	a1,12(sp)
     b4c:	00000097          	auipc	ra,0x0
     b50:	000080e7          	jalr	ra # b4c <.L2+0x8>
     b54:	00492783          	lw	a5,4(s2)
     b58:	00f00713          	li	a4,15
     b5c:	00c12583          	lw	a1,12(sp)
     b60:	00050493          	mv	s1,a0
     b64:	02e79063          	bne	a5,a4,b84 <.L9>
     b68:	00100513          	li	a0,1
     b6c:	02049463          	bnez	s1,b94 <.L12>

00000b70 <.L38>:
     b70:	00c92503          	lw	a0,12(s2)
     b74:	00000097          	auipc	ra,0x0
     b78:	000080e7          	jalr	ra # b74 <.L38+0x4>
     b7c:	00a03533          	snez	a0,a0
     b80:	0140006f          	j	b94 <.L12>

00000b84 <.L9>:
     b84:	00e00713          	li	a4,14
     b88:	00e79a63          	bne	a5,a4,b9c <.L11>
     b8c:	00000513          	li	a0,0
     b90:	fe0490e3          	bnez	s1,b70 <.L38>

00000b94 <.L12>:
     b94:	00050593          	mv	a1,a0
     b98:	f7dff06f          	j	b14 <.L8>

00000b9c <.L11>:
     b9c:	00c92503          	lw	a0,12(s2)
     ba0:	00000097          	auipc	ra,0x0
     ba4:	000080e7          	jalr	ra # ba0 <.L11+0x4>
     ba8:	00492783          	lw	a5,4(s2)
     bac:	00a00713          	li	a4,10
     bb0:	00050413          	mv	s0,a0
     bb4:	ffd78793          	addi	a5,a5,-3 # 9cd <.L3+0xb1>
     bb8:	f0f768e3          	bltu	a4,a5,ac8 <.L6>
     bbc:	00000717          	auipc	a4,0x0
     bc0:	00070713          	mv	a4,a4
     bc4:	00279793          	slli	a5,a5,0x2
     bc8:	00e787b3          	add	a5,a5,a4
     bcc:	0007a783          	lw	a5,0(a5)
     bd0:	00e787b3          	add	a5,a5,a4
     bd4:	00078067          	jr	a5

00000bd8 <.L24>:
     bd8:	02a485b3          	mul	a1,s1,a0
     bdc:	f39ff06f          	j	b14 <.L8>

00000be0 <.L23>:
     be0:	00051863          	bnez	a0,bf0 <.L25>
     be4:	00800513          	li	a0,8
     be8:	00000097          	auipc	ra,0x0
     bec:	000080e7          	jalr	ra # be8 <.L23+0x8>

00000bf0 <.L25>:
     bf0:	0284d5b3          	divu	a1,s1,s0
     bf4:	f21ff06f          	j	b14 <.L8>

00000bf8 <.L22>:
     bf8:	00051863          	bnez	a0,c08 <.L26>
     bfc:	00800513          	li	a0,8
     c00:	00000097          	auipc	ra,0x0
     c04:	000080e7          	jalr	ra # c00 <.L22+0x8>

00000c08 <.L26>:
     c08:	0284f5b3          	remu	a1,s1,s0
     c0c:	f09ff06f          	j	b14 <.L8>

00000c10 <.L21>:
     c10:	00a485b3          	add	a1,s1,a0
     c14:	f01ff06f          	j	b14 <.L8>

00000c18 <.L20>:
     c18:	40a485b3          	sub	a1,s1,a0
     c1c:	ef9ff06f          	j	b14 <.L8>

00000c20 <.L19>:
     c20:	00a4b5b3          	sltu	a1,s1,a0
     c24:	ef1ff06f          	j	b14 <.L8>

00000c28 <.L18>:
     c28:	009535b3          	sltu	a1,a0,s1
     c2c:	ee9ff06f          	j	b14 <.L8>

00000c30 <.L17>:
     c30:	009534b3          	sltu	s1,a0,s1

00000c34 <.L37>:
     c34:	0014c593          	xori	a1,s1,1
     c38:	eddff06f          	j	b14 <.L8>

00000c3c <.L16>:
     c3c:	00a4b4b3          	sltu	s1,s1,a0
     c40:	ff5ff06f          	j	c34 <.L37>

00000c44 <.L15>:
     c44:	40a484b3          	sub	s1,s1,a0
     c48:	0014b593          	seqz	a1,s1
     c4c:	ec9ff06f          	j	b14 <.L8>

00000c50 <.L13>:
     c50:	40a484b3          	sub	s1,s1,a0
     c54:	009035b3          	snez	a1,s1
     c58:	ebdff06f          	j	b14 <.L8>

00000c5c <transcmp>:
     c5c:	01052783          	lw	a5,16(a0)
     c60:	ff010113          	addi	sp,sp,-16
     c64:	00812423          	sw	s0,8(sp)
     c68:	00912223          	sw	s1,4(sp)
     c6c:	00112623          	sw	ra,12(sp)
     c70:	00050493          	mv	s1,a0
     c74:	00058413          	mv	s0,a1
     c78:	01c50513          	addi	a0,a0,28
     c7c:	00079463          	bnez	a5,c84 <.L49>
     c80:	01c4a503          	lw	a0,28(s1) # 16c <call_fini+0x30>

00000c84 <.L49>:
     c84:	01042783          	lw	a5,16(s0)
     c88:	01c40593          	addi	a1,s0,28
     c8c:	00079463          	bnez	a5,c94 <.L51>
     c90:	01c42583          	lw	a1,28(s0)

00000c94 <.L51>:
     c94:	00000097          	auipc	ra,0x0
     c98:	000080e7          	jalr	ra # c94 <.L51>
     c9c:	02051c63          	bnez	a0,cd4 <.L47>
     ca0:	00042583          	lw	a1,0(s0)
     ca4:	0004a503          	lw	a0,0(s1)
     ca8:	00000097          	auipc	ra,0x0
     cac:	000080e7          	jalr	ra # ca8 <.L51+0x14>
     cb0:	02051263          	bnez	a0,cd4 <.L47>
     cb4:	00842583          	lw	a1,8(s0)
     cb8:	0084a503          	lw	a0,8(s1)
     cbc:	00000097          	auipc	ra,0x0
     cc0:	000080e7          	jalr	ra # cbc <.L51+0x28>
     cc4:	00051863          	bnez	a0,cd4 <.L47>
     cc8:	0044a503          	lw	a0,4(s1)
     ccc:	00442783          	lw	a5,4(s0)
     cd0:	40f50533          	sub	a0,a0,a5

00000cd4 <.L47>:
     cd4:	00c12083          	lw	ra,12(sp)
     cd8:	00812403          	lw	s0,8(sp)
     cdc:	00412483          	lw	s1,4(sp)
     ce0:	01010113          	addi	sp,sp,16
     ce4:	00008067          	ret

00000ce8 <plural_lookup.isra.0>:
     ce8:	fe010113          	addi	sp,sp,-32
     cec:	01312623          	sw	s3,12(sp)
     cf0:	00050993          	mv	s3,a0
     cf4:	07052503          	lw	a0,112(a0)
     cf8:	00812c23          	sw	s0,24(sp)
     cfc:	00912a23          	sw	s1,20(sp)
     d00:	01212823          	sw	s2,16(sp)
     d04:	00112e23          	sw	ra,28(sp)
     d08:	00060493          	mv	s1,a2
     d0c:	00068913          	mv	s2,a3
     d10:	00000097          	auipc	ra,0x0
     d14:	000080e7          	jalr	ra # d10 <plural_lookup.isra.0+0x28>
     d18:	0749a783          	lw	a5,116(s3)
     d1c:	00050413          	mv	s0,a0
     d20:	00f56463          	bltu	a0,a5,d28 <.L56>
     d24:	00000413          	li	s0,0

00000d28 <.L56>:
     d28:	00048513          	mv	a0,s1
     d2c:	fff00993          	li	s3,-1
     d30:	01248933          	add	s2,s1,s2

00000d34 <.L58>:
     d34:	fff40413          	addi	s0,s0,-1
     d38:	03341063          	bne	s0,s3,d58 <.L59>

00000d3c <.L54>:
     d3c:	01c12083          	lw	ra,28(sp)
     d40:	01812403          	lw	s0,24(sp)
     d44:	01412483          	lw	s1,20(sp)
     d48:	01012903          	lw	s2,16(sp)
     d4c:	00c12983          	lw	s3,12(sp)
     d50:	02010113          	addi	sp,sp,32
     d54:	00008067          	ret

00000d58 <.L59>:
     d58:	00000593          	li	a1,0
     d5c:	00000097          	auipc	ra,0x0
     d60:	000080e7          	jalr	ra # d5c <.L59+0x4>
     d64:	00150513          	addi	a0,a0,1
     d68:	fd2566e3          	bltu	a0,s2,d34 <.L58>
     d6c:	00048513          	mv	a0,s1
     d70:	fcdff06f          	j	d3c <.L54>

00000d74 <_nl_find_msg>:
     d74:	f8010113          	addi	sp,sp,-128
     d78:	06812c23          	sw	s0,120(sp)
     d7c:	05712e23          	sw	s7,92(sp)
     d80:	05812c23          	sw	s8,88(sp)
     d84:	06112e23          	sw	ra,124(sp)
     d88:	06912a23          	sw	s1,116(sp)
     d8c:	07212823          	sw	s2,112(sp)
     d90:	07312623          	sw	s3,108(sp)
     d94:	07412423          	sw	s4,104(sp)
     d98:	07512223          	sw	s5,100(sp)
     d9c:	07612023          	sw	s6,96(sp)
     da0:	05912a23          	sw	s9,84(sp)
     da4:	05a12823          	sw	s10,80(sp)
     da8:	05b12623          	sw	s11,76(sp)
     dac:	08010413          	addi	s0,sp,128
     db0:	00452783          	lw	a5,4(a0)
     db4:	f8c42e23          	sw	a2,-100(s0)
     db8:	f8d42a23          	sw	a3,-108(s0)
     dbc:	f8e42823          	sw	a4,-112(s0)
     dc0:	00050b93          	mv	s7,a0
     dc4:	00058c13          	mv	s8,a1
     dc8:	00f04663          	bgtz	a5,dd4 <.L63>
     dcc:	00000097          	auipc	ra,0x0
     dd0:	000080e7          	jalr	ra # dcc <_nl_find_msg+0x58>

00000dd4 <.L63>:
     dd4:	008ba483          	lw	s1,8(s7)
     dd8:	04049663          	bnez	s1,e24 <.L64>

00000ddc <.L194>:
     ddc:	00000793          	li	a5,0

00000de0 <.L62>:
     de0:	f8040113          	addi	sp,s0,-128
     de4:	07c12083          	lw	ra,124(sp)
     de8:	07812403          	lw	s0,120(sp)
     dec:	07412483          	lw	s1,116(sp)
     df0:	07012903          	lw	s2,112(sp)
     df4:	06c12983          	lw	s3,108(sp)
     df8:	06812a03          	lw	s4,104(sp)
     dfc:	06412a83          	lw	s5,100(sp)
     e00:	06012b03          	lw	s6,96(sp)
     e04:	05c12b83          	lw	s7,92(sp)
     e08:	05812c03          	lw	s8,88(sp)
     e0c:	05412c83          	lw	s9,84(sp)
     e10:	05012d03          	lw	s10,80(sp)
     e14:	04c12d83          	lw	s11,76(sp)
     e18:	00078513          	mv	a0,a5
     e1c:	08010113          	addi	sp,sp,128
     e20:	00008067          	ret

00000e24 <.L64>:
     e24:	0304a783          	lw	a5,48(s1)
     e28:	0144aa03          	lw	s4,20(s1)
     e2c:	26078863          	beqz	a5,109c <.L130>
     e30:	f9c42503          	lw	a0,-100(s0)
     e34:	00000097          	auipc	ra,0x0
     e38:	000080e7          	jalr	ra # e34 <.L64+0x10>
     e3c:	00050c93          	mv	s9,a0
     e40:	f9c42503          	lw	a0,-100(s0)
     e44:	00000097          	auipc	ra,0x0
     e48:	000080e7          	jalr	ra # e44 <.L64+0x20>
     e4c:	02c4ab03          	lw	s6,44(s1)
     e50:	0304ad03          	lw	s10,48(s1)
     e54:	ffeb0793          	addi	a5,s6,-2
     e58:	03657ab3          	remu	s5,a0,s6
     e5c:	02f57533          	remu	a0,a0,a5
     e60:	0344a783          	lw	a5,52(s1)
     e64:	f8f42c23          	sw	a5,-104(s0)
     e68:	00150993          	addi	s3,a0,1
     e6c:	413b0db3          	sub	s11,s6,s3
     e70:	41698b33          	sub	s6,s3,s6

00000e74 <.L67>:
     e74:	002a9793          	slli	a5,s5,0x2
     e78:	00fd07b3          	add	a5,s10,a5
     e7c:	0007a503          	lw	a0,0(a5)
     e80:	f9842783          	lw	a5,-104(s0)
     e84:	00078663          	beqz	a5,e90 <.L68>
     e88:	00000097          	auipc	ra,0x0
     e8c:	000080e7          	jalr	ra # e88 <.L67+0x14>

00000e90 <.L68>:
     e90:	f40506e3          	beqz	a0,ddc <.L194>
     e94:	fff50913          	addi	s2,a0,-1
     e98:	17497a63          	bgeu	s2,s4,100c <.L70>
     e9c:	0184a783          	lw	a5,24(s1)
     ea0:	00391713          	slli	a4,s2,0x3
     ea4:	00e787b3          	add	a5,a5,a4
     ea8:	00c4a703          	lw	a4,12(s1)
     eac:	0007a503          	lw	a0,0(a5)
     eb0:	14070663          	beqz	a4,ffc <.L71>
     eb4:	f8f42423          	sw	a5,-120(s0)
     eb8:	00000097          	auipc	ra,0x0
     ebc:	000080e7          	jalr	ra # eb8 <.L68+0x28>
     ec0:	17956c63          	bltu	a0,s9,1038 <.L72>
     ec4:	f8842783          	lw	a5,-120(s0)
     ec8:	0004a583          	lw	a1,0(s1)
     ecc:	0047a503          	lw	a0,4(a5)
     ed0:	f8b42623          	sw	a1,-116(s0)
     ed4:	00000097          	auipc	ra,0x0
     ed8:	000080e7          	jalr	ra # ed4 <.L68+0x44>
     edc:	f8c42583          	lw	a1,-116(s0)

00000ee0 <.L73>:
     ee0:	00a585b3          	add	a1,a1,a0
     ee4:	f9c42503          	lw	a0,-100(s0)
     ee8:	00000097          	auipc	ra,0x0
     eec:	000080e7          	jalr	ra # ee8 <.L73+0x8>
     ef0:	14051463          	bnez	a0,1038 <.L72>

00000ef4 <.L74>:
     ef4:	01c4a783          	lw	a5,28(s1)
     ef8:	00391713          	slli	a4,s2,0x3
     efc:	0004ac83          	lw	s9,0(s1)
     f00:	00e787b3          	add	a5,a5,a4
     f04:	0007aa83          	lw	s5,0(a5)
     f08:	0047a503          	lw	a0,4(a5)
     f0c:	00c4a783          	lw	a5,12(s1)
     f10:	1c078063          	beqz	a5,10d0 <.L82>
     f14:	00000097          	auipc	ra,0x0
     f18:	000080e7          	jalr	ra # f14 <.L74+0x20>
     f1c:	00ac8cb3          	add	s9,s9,a0
     f20:	000a8513          	mv	a0,s5
     f24:	00000097          	auipc	ra,0x0
     f28:	000080e7          	jalr	ra # f24 <.L74+0x30>
     f2c:	00150a93          	addi	s5,a0,1

00000f30 <.L83>:
     f30:	f9442783          	lw	a5,-108(s0)
     f34:	68078063          	beqz	a5,15b4 <.L107>
     f38:	000c0663          	beqz	s8,f44 <.L85>
     f3c:	008c2d03          	lw	s10,8(s8)
     f40:	080d1a63          	bnez	s10,fd4 <.L86>

00000f44 <.L85>:
     f44:	00000997          	auipc	s3,0x0
     f48:	00098993          	mv	s3,s3
     f4c:	00c9a783          	lw	a5,12(s3) # f50 <.L85+0xc>
     f50:	06079263          	bnez	a5,fb4 <.L87>
     f54:	00000517          	auipc	a0,0x0
     f58:	00050513          	mv	a0,a0
     f5c:	00000097          	auipc	ra,0x0
     f60:	000080e7          	jalr	ra # f5c <.L85+0x18>
     f64:	04050463          	beqz	a0,fac <.L88>
     f68:	00054783          	lbu	a5,0(a0) # f54 <.L85+0x10>
     f6c:	04078063          	beqz	a5,fac <.L88>
     f70:	f8a42c23          	sw	a0,-104(s0)
     f74:	00000097          	auipc	ra,0x0
     f78:	000080e7          	jalr	ra # f74 <.L85+0x30>
     f7c:	00150613          	addi	a2,a0,1
     f80:	00060513          	mv	a0,a2
     f84:	f8c42e23          	sw	a2,-100(s0)
     f88:	00000097          	auipc	ra,0x0
     f8c:	000080e7          	jalr	ra # f88 <.L85+0x44>
     f90:	00050b13          	mv	s6,a0
     f94:	00050a63          	beqz	a0,fa8 <.L89>
     f98:	f9c42603          	lw	a2,-100(s0)
     f9c:	f9842583          	lw	a1,-104(s0)
     fa0:	00000097          	auipc	ra,0x0
     fa4:	000080e7          	jalr	ra # fa0 <.L85+0x5c>

00000fa8 <.L89>:
     fa8:	0169a823          	sw	s6,16(s3)

00000fac <.L88>:
     fac:	00100793          	li	a5,1
     fb0:	00f9a623          	sw	a5,12(s3)

00000fb4 <.L87>:
     fb4:	0109ad03          	lw	s10,16(s3)
     fb8:	000d1e63          	bnez	s10,fd4 <.L86>
     fbc:	00000797          	auipc	a5,0x0
     fc0:	0007a783          	lw	a5,0(a5) # fbc <.L87+0x8>
     fc4:	004787b3          	add	a5,a5,tp
     fc8:	0007a783          	lw	a5,0(a5)
     fcc:	0007a783          	lw	a5,0(a5)
     fd0:	05c7ad03          	lw	s10,92(a5)

00000fd4 <.L86>:
     fd4:	04048793          	addi	a5,s1,64
     fd8:	00078513          	mv	a0,a5
     fdc:	f8f42e23          	sw	a5,-100(s0)
     fe0:	00000097          	auipc	ra,0x0
     fe4:	000080e7          	jalr	ra # fe0 <.L86+0xc>
     fe8:	03c4ab03          	lw	s6,60(s1)
     fec:	00c00d93          	li	s11,12

00000ff0 <.L90>:
     ff0:	0e0b1663          	bnez	s6,10dc <.L92>
     ff4:	00000993          	li	s3,0
     ff8:	1080006f          	j	1100 <.L91>

00000ffc <.L71>:
     ffc:	03956e63          	bltu	a0,s9,1038 <.L72>
    1000:	0004a583          	lw	a1,0(s1)
    1004:	0047a503          	lw	a0,4(a5)
    1008:	ed9ff06f          	j	ee0 <.L73>

0000100c <.L70>:
    100c:	0244a783          	lw	a5,36(s1)
    1010:	41490733          	sub	a4,s2,s4
    1014:	00371713          	slli	a4,a4,0x3
    1018:	00e787b3          	add	a5,a5,a4
    101c:	0007a703          	lw	a4,0(a5)
    1020:	00ecfc63          	bgeu	s9,a4,1038 <.L72>
    1024:	0047a583          	lw	a1,4(a5)
    1028:	f9c42503          	lw	a0,-100(s0)
    102c:	00000097          	auipc	ra,0x0
    1030:	000080e7          	jalr	ra # 102c <.L70+0x20>
    1034:	08050063          	beqz	a0,10b4 <.L75>

00001038 <.L72>:
    1038:	01bae663          	bltu	s5,s11,1044 <.L76>
    103c:	016a8ab3          	add	s5,s5,s6
    1040:	e35ff06f          	j	e74 <.L67>

00001044 <.L76>:
    1044:	013a8ab3          	add	s5,s5,s3
    1048:	e2dff06f          	j	e74 <.L67>

0000104c <.L81>:
    104c:	0184a783          	lw	a5,24(s1)
    1050:	013a8933          	add	s2,s5,s3
    1054:	00195913          	srli	s2,s2,0x1
    1058:	00391713          	slli	a4,s2,0x3
    105c:	00e787b3          	add	a5,a5,a4
    1060:	0047a503          	lw	a0,4(a5)
    1064:	00c4a783          	lw	a5,12(s1)
    1068:	0004ab03          	lw	s6,0(s1)
    106c:	00078663          	beqz	a5,1078 <.L78>
    1070:	00000097          	auipc	ra,0x0
    1074:	000080e7          	jalr	ra # 1070 <.L81+0x24>

00001078 <.L78>:
    1078:	00ab05b3          	add	a1,s6,a0
    107c:	f9c42503          	lw	a0,-100(s0)
    1080:	00000097          	auipc	ra,0x0
    1084:	000080e7          	jalr	ra # 1080 <.L78+0x8>
    1088:	02054063          	bltz	a0,10a8 <.L131>
    108c:	02050263          	beqz	a0,10b0 <.L80>
    1090:	00190993          	addi	s3,s2,1

00001094 <.L79>:
    1094:	fb59ece3          	bltu	s3,s5,104c <.L81>
    1098:	d45ff06f          	j	ddc <.L194>

0000109c <.L130>:
    109c:	000a0a93          	mv	s5,s4
    10a0:	00000993          	li	s3,0
    10a4:	ff1ff06f          	j	1094 <.L79>

000010a8 <.L131>:
    10a8:	00090a93          	mv	s5,s2
    10ac:	fe9ff06f          	j	1094 <.L79>

000010b0 <.L80>:
    10b0:	e54962e3          	bltu	s2,s4,ef4 <.L74>

000010b4 <.L75>:
    10b4:	0284a783          	lw	a5,40(s1)
    10b8:	41490733          	sub	a4,s2,s4
    10bc:	00371713          	slli	a4,a4,0x3
    10c0:	00e787b3          	add	a5,a5,a4
    10c4:	0047ac83          	lw	s9,4(a5)
    10c8:	0007aa83          	lw	s5,0(a5)
    10cc:	e65ff06f          	j	f30 <.L83>

000010d0 <.L82>:
    10d0:	00ac8cb3          	add	s9,s9,a0
    10d4:	001a8a93          	addi	s5,s5,1
    10d8:	e59ff06f          	j	f30 <.L83>

000010dc <.L92>:
    10dc:	fffb0b13          	addi	s6,s6,-1
    10e0:	03bb0733          	mul	a4,s6,s11
    10e4:	0384a983          	lw	s3,56(s1)
    10e8:	000d0593          	mv	a1,s10
    10ec:	00e989b3          	add	s3,s3,a4
    10f0:	0009a503          	lw	a0,0(s3)
    10f4:	00000097          	auipc	ra,0x0
    10f8:	000080e7          	jalr	ra # 10f4 <.L92+0x18>
    10fc:	ee051ae3          	bnez	a0,ff0 <.L90>

00001100 <.L91>:
    1100:	f9c42503          	lw	a0,-100(s0)
    1104:	00000097          	auipc	ra,0x0
    1108:	000080e7          	jalr	ra # 1104 <.L91+0x4>
    110c:	08099c63          	bnez	s3,11a4 <.L93>
    1110:	f9c42503          	lw	a0,-100(s0)
    1114:	00000097          	auipc	ra,0x0
    1118:	000080e7          	jalr	ra # 1114 <.L91+0x14>
    111c:	03c4ab03          	lw	s6,60(s1)
    1120:	0384ad83          	lw	s11,56(s1)
    1124:	00c00693          	li	a3,12
    1128:	000b0793          	mv	a5,s6

0000112c <.L94>:
    112c:	04079063          	bnez	a5,116c <.L96>
    1130:	001b0b13          	addi	s6,s6,1
    1134:	00c00793          	li	a5,12
    1138:	02fb0b33          	mul	s6,s6,a5
    113c:	1e0d8063          	beqz	s11,131c <.L97>
    1140:	000b0593          	mv	a1,s6
    1144:	000d8513          	mv	a0,s11
    1148:	00000097          	auipc	ra,0x0
    114c:	000080e7          	jalr	ra # 1148 <.L94+0x1c>

00001150 <.L193>:
    1150:	00050993          	mv	s3,a0
    1154:	1c051c63          	bnez	a0,132c <.L99>

00001158 <.L101>:
    1158:	f9c42503          	lw	a0,-100(s0)
    115c:	00000097          	auipc	ra,0x0
    1160:	000080e7          	jalr	ra # 115c <.L101+0x4>

00001164 <.L124>:
    1164:	fff00793          	li	a5,-1
    1168:	c79ff06f          	j	de0 <.L62>

0000116c <.L96>:
    116c:	fff78793          	addi	a5,a5,-1
    1170:	02d789b3          	mul	s3,a5,a3
    1174:	000d0593          	mv	a1,s10
    1178:	f8f42c23          	sw	a5,-104(s0)
    117c:	013d89b3          	add	s3,s11,s3
    1180:	0009a503          	lw	a0,0(s3)
    1184:	00000097          	auipc	ra,0x0
    1188:	000080e7          	jalr	ra # 1184 <.L96+0x18>
    118c:	f9842783          	lw	a5,-104(s0)
    1190:	00c00693          	li	a3,12
    1194:	f8051ce3          	bnez	a0,112c <.L94>

00001198 <.L95>:
    1198:	f9c42503          	lw	a0,-100(s0)
    119c:	00000097          	auipc	ra,0x0
    11a0:	000080e7          	jalr	ra # 119c <.L95+0x4>

000011a4 <.L93>:
    11a4:	0049a703          	lw	a4,4(s3)
    11a8:	fff00793          	li	a5,-1
    11ac:	40f70463          	beq	a4,a5,15b4 <.L107>
    11b0:	0089a783          	lw	a5,8(s3)
    11b4:	08079463          	bnez	a5,123c <.L109>
    11b8:	00000b17          	auipc	s6,0x0
    11bc:	000b0b13          	mv	s6,s6
    11c0:	00100713          	li	a4,1
    11c4:	014b0613          	addi	a2,s6,20 # 11cc <.L1^B1+0x4>

000011c8 <.L1^B1>:
    11c8:	100627af          	lr.w	a5,(a2)
    11cc:	00079663          	bnez	a5,11d8 <.L1^B2>
    11d0:	1ce626af          	sc.w.aq	a3,a4,(a2)
    11d4:	fe069ae3          	bnez	a3,11c8 <.L1^B1>

000011d8 <.L1^B2>:
    11d8:	00078863          	beqz	a5,11e8 <.L110>
    11dc:	00060513          	mv	a0,a2
    11e0:	00000097          	auipc	ra,0x0
    11e4:	000080e7          	jalr	ra # 11e0 <.L1^B2+0x8>

000011e8 <.L110>:
    11e8:	0089a783          	lw	a5,8(s3)
    11ec:	02079463          	bnez	a5,1214 <.L111>
    11f0:	0204a503          	lw	a0,32(s1)
    11f4:	00400593          	li	a1,4
    11f8:	00aa0533          	add	a0,s4,a0
    11fc:	00000097          	auipc	ra,0x0
    1200:	000080e7          	jalr	ra # 11fc <.L110+0x14>
    1204:	00a9a423          	sw	a0,8(s3)
    1208:	08051063          	bnez	a0,1288 <.L113>
    120c:	fff00793          	li	a5,-1
    1210:	00f9a423          	sw	a5,8(s3)

00001214 <.L111>:
    1214:	00000793          	li	a5,0
    1218:	014b0713          	addi	a4,s6,20
    121c:	0f50000f          	fence	iorw,ow
    1220:	08f727af          	amoswap.w	a5,a5,(a4)
    1224:	00100713          	li	a4,1
    1228:	00f75a63          	bge	a4,a5,123c <.L109>
    122c:	00000517          	auipc	a0,0x0
    1230:	00050513          	mv	a0,a0
    1234:	00000097          	auipc	ra,0x0
    1238:	000080e7          	jalr	ra # 1234 <.L111+0x20>

0000123c <.L109>:
    123c:	0089a783          	lw	a5,8(s3)
    1240:	fff00713          	li	a4,-1
    1244:	f2e780e3          	beq	a5,a4,1164 <.L124>
    1248:	00291713          	slli	a4,s2,0x2
    124c:	00e787b3          	add	a5,a5,a4
    1250:	0007a783          	lw	a5,0(a5)
    1254:	34079463          	bnez	a5,159c <.L116>
    1258:	00000797          	auipc	a5,0x0
    125c:	00078793          	mv	a5,a5
    1260:	00100693          	li	a3,1
    1264:	01478793          	addi	a5,a5,20 # 126c <.L1^B3+0x4>

00001268 <.L1^B3>:
    1268:	1007a72f          	lr.w	a4,(a5)
    126c:	00071663          	bnez	a4,1278 <.L1^B4>
    1270:	1cd7a62f          	sc.w.aq	a2,a3,(a5)
    1274:	fe061ae3          	bnez	a2,1268 <.L1^B3>

00001278 <.L1^B4>:
    1278:	00070863          	beqz	a4,1288 <.L113>
    127c:	00078513          	mv	a0,a5
    1280:	00000097          	auipc	ra,0x0
    1284:	000080e7          	jalr	ra # 1280 <.L1^B4+0x8>

00001288 <.L113>:
    1288:	00000497          	auipc	s1,0x0
    128c:	00048493          	mv	s1,s1
    1290:	0184a783          	lw	a5,24(s1) # 12a0 <.L113+0x18>
    1294:	01c4a703          	lw	a4,28(s1)
    1298:	fb942623          	sw	s9,-84(s0)
    129c:	00478793          	addi	a5,a5,4
    12a0:	faf42823          	sw	a5,-80(s0)
    12a4:	00300793          	li	a5,3
    12a8:	00048a13          	mv	s4,s1
    12ac:	22e7fe63          	bgeu	a5,a4,14e8 <.L118>
    12b0:	00000b13          	li	s6,0

000012b4 <.L127>:
    12b4:	fb042683          	lw	a3,-80(s0)
    12b8:	fac42603          	lw	a2,-84(s0)
    12bc:	0049a503          	lw	a0,4(s3)
    12c0:	ffc70713          	addi	a4,a4,-4 # bb8 <.L11+0x1c>
    12c4:	00e68733          	add	a4,a3,a4
    12c8:	fb440793          	addi	a5,s0,-76
    12cc:	fb040693          	addi	a3,s0,-80
    12d0:	01560633          	add	a2,a2,s5
    12d4:	fac40593          	addi	a1,s0,-84
    12d8:	00000097          	auipc	ra,0x0
    12dc:	000080e7          	jalr	ra # 12d8 <.L127+0x24>
    12e0:	ffb57713          	andi	a4,a0,-5
    12e4:	24070a63          	beqz	a4,1538 <.L119>
    12e8:	00500793          	li	a5,5
    12ec:	16f50e63          	beq	a0,a5,1468 <.L120>
    12f0:	00000793          	li	a5,0
    12f4:	014a0713          	addi	a4,s4,20 # 458 <.L24>
    12f8:	0f50000f          	fence	iorw,ow
    12fc:	08f727af          	amoswap.w	a5,a5,(a4)
    1300:	00100713          	li	a4,1
    1304:	acf75ce3          	bge	a4,a5,ddc <.L194>
    1308:	00000517          	auipc	a0,0x0
    130c:	00050513          	mv	a0,a0
    1310:	00000097          	auipc	ra,0x0
    1314:	000080e7          	jalr	ra # 1310 <.L127+0x5c>
    1318:	ac5ff06f          	j	ddc <.L194>

0000131c <.L97>:
    131c:	000b0513          	mv	a0,s6
    1320:	00000097          	auipc	ra,0x0
    1324:	000080e7          	jalr	ra # 1320 <.L97+0x4>
    1328:	e29ff06f          	j	1150 <.L193>

0000132c <.L99>:
    132c:	02a4ac23          	sw	a0,56(s1)
    1330:	000d0513          	mv	a0,s10
    1334:	00000097          	auipc	ra,0x0
    1338:	000080e7          	jalr	ra # 1334 <.L99+0x8>
    133c:	00050d13          	mv	s10,a0
    1340:	e0050ce3          	beqz	a0,1158 <.L101>
    1344:	ff4b0b13          	addi	s6,s6,-12
    1348:	016989b3          	add	s3,s3,s6
    134c:	fff00b13          	li	s6,-1
    1350:	00a9a023          	sw	a0,0(s3)
    1354:	0169a223          	sw	s6,4(s3)
    1358:	fb040713          	addi	a4,s0,-80
    135c:	00000693          	li	a3,0
    1360:	00000617          	auipc	a2,0x0
    1364:	00060613          	mv	a2,a2
    1368:	000c0593          	mv	a1,s8
    136c:	000b8513          	mv	a0,s7
    1370:	00000097          	auipc	ra,0x0
    1374:	000080e7          	jalr	ra # 1370 <.L99+0x44>
    1378:	00050793          	mv	a5,a0
    137c:	a76502e3          	beq	a0,s6,de0 <.L62>
    1380:	0c050a63          	beqz	a0,1454 <.L103>
    1384:	00000597          	auipc	a1,0x0
    1388:	00058593          	mv	a1,a1
    138c:	00000097          	auipc	ra,0x0
    1390:	000080e7          	jalr	ra # 138c <.L99+0x60>
    1394:	0c050063          	beqz	a0,1454 <.L103>
    1398:	00850b93          	addi	s7,a0,8 # 1310 <.L127+0x5c>
    139c:	00000597          	auipc	a1,0x0
    13a0:	00058593          	mv	a1,a1
    13a4:	000b8513          	mv	a0,s7
    13a8:	00000097          	auipc	ra,0x0
    13ac:	000080e7          	jalr	ra # 13a8 <.L99+0x7c>
    13b0:	01850793          	addi	a5,a0,24
    13b4:	ff07f793          	andi	a5,a5,-16
    13b8:	40f10133          	sub	sp,sp,a5
    13bc:	00f10793          	addi	a5,sp,15
    13c0:	ff07f793          	andi	a5,a5,-16
    13c4:	00050c13          	mv	s8,a0
    13c8:	00050613          	mv	a2,a0
    13cc:	000b8593          	mv	a1,s7
    13d0:	00078513          	mv	a0,a5
    13d4:	00000097          	auipc	ra,0x0
    13d8:	000080e7          	jalr	ra # 13d4 <.L99+0xa8>
    13dc:	00050793          	mv	a5,a0
    13e0:	fb440b93          	addi	s7,s0,-76
    13e4:	01850533          	add	a0,a0,s8
    13e8:	00078593          	mv	a1,a5
    13ec:	00050023          	sb	zero,0(a0)
    13f0:	000d0613          	mv	a2,s10
    13f4:	000b8513          	mv	a0,s7
    13f8:	00000097          	auipc	ra,0x0
    13fc:	000080e7          	jalr	ra # 13f8 <.L99+0xcc>
    1400:	00100793          	li	a5,1
    1404:	faf40e23          	sb	a5,-68(s0)
    1408:	00100613          	li	a2,1
    140c:	00498593          	addi	a1,s3,4
    1410:	000b8513          	mv	a0,s7
    1414:	00000097          	auipc	ra,0x0
    1418:	000080e7          	jalr	ra # 1414 <.L99+0xe8>
    141c:	00050c13          	mv	s8,a0
    1420:	000b8513          	mv	a0,s7
    1424:	00000097          	auipc	ra,0x0
    1428:	000080e7          	jalr	ra # 1424 <.L99+0xf8>
    142c:	020c0463          	beqz	s8,1454 <.L103>
    1430:	036c0063          	beq	s8,s6,1450 <.L105>
    1434:	f9c42503          	lw	a0,-100(s0)
    1438:	00000097          	auipc	ra,0x0
    143c:	000080e7          	jalr	ra # 1438 <.L99+0x10c>
    1440:	000d0513          	mv	a0,s10
    1444:	00000097          	auipc	ra,0x0
    1448:	000080e7          	jalr	ra # 1444 <.L99+0x118>
    144c:	991ff06f          	j	ddc <.L194>

00001450 <.L105>:
    1450:	0189a223          	sw	s8,4(s3)

00001454 <.L103>:
    1454:	03c4a783          	lw	a5,60(s1)
    1458:	0009a423          	sw	zero,8(s3)
    145c:	00178793          	addi	a5,a5,1
    1460:	02f4ae23          	sw	a5,60(s1)
    1464:	d35ff06f          	j	1198 <.L95>

00001468 <.L120>:
    1468:	fb942623          	sw	s9,-84(s0)
    146c:	060b0e63          	beqz	s6,14e8 <.L118>

00001470 <.L126>:
    1470:	000015b7          	lui	a1,0x1
    1474:	001b0b13          	addi	s6,s6,1
    1478:	ff058593          	addi	a1,a1,-16 # ff0 <.L90>
    147c:	02bb05b3          	mul	a1,s6,a1
    1480:	0084ab83          	lw	s7,8(s1)
    1484:	000b8513          	mv	a0,s7
    1488:	00b4ae23          	sw	a1,28(s1)
    148c:	00000097          	auipc	ra,0x0
    1490:	000080e7          	jalr	ra # 148c <.L126+0x1c>
    1494:	06051c63          	bnez	a0,150c <.L122>
    1498:	000ba783          	lw	a5,0(s7)
    149c:	000b8513          	mv	a0,s7
    14a0:	00f4a423          	sw	a5,8(s1)
    14a4:	00000097          	auipc	ra,0x0
    14a8:	000080e7          	jalr	ra # 14a4 <.L126+0x34>

000014ac <.L123>:
    14ac:	00000797          	auipc	a5,0x0
    14b0:	0007a023          	sw	zero,0(a5) # 14ac <.L123>
    14b4:	00000797          	auipc	a5,0x0
    14b8:	0007a023          	sw	zero,0(a5) # 14b4 <.L123+0x8>
    14bc:	00000793          	li	a5,0
    14c0:	014a0713          	addi	a4,s4,20
    14c4:	0f50000f          	fence	iorw,ow
    14c8:	08f727af          	amoswap.w	a5,a5,(a4)
    14cc:	00100713          	li	a4,1
    14d0:	c8f75ae3          	bge	a4,a5,1164 <.L124>
    14d4:	00000517          	auipc	a0,0x0
    14d8:	00050513          	mv	a0,a0
    14dc:	00000097          	auipc	ra,0x0
    14e0:	000080e7          	jalr	ra # 14dc <.L123+0x30>
    14e4:	c81ff06f          	j	1164 <.L124>

000014e8 <.L118>:
    14e8:	00001537          	lui	a0,0x1
    14ec:	ff050513          	addi	a0,a0,-16 # ff0 <.L90>
    14f0:	00a4ae23          	sw	a0,28(s1)
    14f4:	00000097          	auipc	ra,0x0
    14f8:	000080e7          	jalr	ra # 14f4 <.L118+0xc>
    14fc:	fa0508e3          	beqz	a0,14ac <.L123>
    1500:	0084a783          	lw	a5,8(s1)
    1504:	00100b13          	li	s6,1
    1508:	00f52023          	sw	a5,0(a0)

0000150c <.L122>:
    150c:	01c4a703          	lw	a4,28(s1)
    1510:	00450793          	addi	a5,a0,4
    1514:	00a4a423          	sw	a0,8(s1)
    1518:	ffc70713          	addi	a4,a4,-4
    151c:	00850513          	addi	a0,a0,8
    1520:	00f4ac23          	sw	a5,24(s1)
    1524:	00e4ae23          	sw	a4,28(s1)
    1528:	faa42823          	sw	a0,-80(s0)
    152c:	00300793          	li	a5,3
    1530:	f4e7f0e3          	bgeu	a5,a4,1470 <.L126>
    1534:	d81ff06f          	j	12b4 <.L127>

00001538 <.L119>:
    1538:	0184a603          	lw	a2,24(s1)
    153c:	fb042683          	lw	a3,-80(s0)
    1540:	00291513          	slli	a0,s2,0x2
    1544:	40c685b3          	sub	a1,a3,a2
    1548:	ffc58793          	addi	a5,a1,-4
    154c:	00f62023          	sw	a5,0(a2) # 1360 <.L99+0x34>
    1550:	0089a783          	lw	a5,8(s3)
    1554:	00a787b3          	add	a5,a5,a0
    1558:	00c7a023          	sw	a2,0(a5)
    155c:	01c4a783          	lw	a5,28(s1)
    1560:	40b787b3          	sub	a5,a5,a1
    1564:	0037f613          	andi	a2,a5,3
    1568:	00c686b3          	add	a3,a3,a2
    156c:	ffc7f793          	andi	a5,a5,-4
    1570:	00f4ae23          	sw	a5,28(s1)
    1574:	00d4ac23          	sw	a3,24(s1)
    1578:	014a0793          	addi	a5,s4,20
    157c:	0f50000f          	fence	iorw,ow
    1580:	08e7a72f          	amoswap.w	a4,a4,(a5)
    1584:	00100793          	li	a5,1
    1588:	00e7da63          	bge	a5,a4,159c <.L116>
    158c:	00000517          	auipc	a0,0x0
    1590:	00050513          	mv	a0,a0
    1594:	00000097          	auipc	ra,0x0
    1598:	000080e7          	jalr	ra # 1594 <.L119+0x5c>

0000159c <.L116>:
    159c:	0089a783          	lw	a5,8(s3)
    15a0:	00291913          	slli	s2,s2,0x2
    15a4:	012787b3          	add	a5,a5,s2
    15a8:	0007a783          	lw	a5,0(a5)
    15ac:	0007aa83          	lw	s5,0(a5)
    15b0:	00478c93          	addi	s9,a5,4

000015b4 <.L107>:
    15b4:	f9042783          	lw	a5,-112(s0)
    15b8:	0157a023          	sw	s5,0(a5)
    15bc:	000c8793          	mv	a5,s9
    15c0:	821ff06f          	j	de0 <.L62>

000015c4 <__dcigettext>:
    15c4:	f6010113          	addi	sp,sp,-160
    15c8:	08812c23          	sw	s0,152(sp)
    15cc:	08912a23          	sw	s1,148(sp)
    15d0:	08112e23          	sw	ra,156(sp)
    15d4:	09212823          	sw	s2,144(sp)
    15d8:	09312623          	sw	s3,140(sp)
    15dc:	09412423          	sw	s4,136(sp)
    15e0:	09512223          	sw	s5,132(sp)
    15e4:	09612023          	sw	s6,128(sp)
    15e8:	07712e23          	sw	s7,124(sp)
    15ec:	07812c23          	sw	s8,120(sp)
    15f0:	07912a23          	sw	s9,116(sp)
    15f4:	07a12823          	sw	s10,112(sp)
    15f8:	07b12623          	sw	s11,108(sp)
    15fc:	0a010413          	addi	s0,sp,160
    1600:	f8a42623          	sw	a0,-116(s0)
    1604:	f6c42823          	sw	a2,-144(s0)
    1608:	f6e42e23          	sw	a4,-132(s0)
    160c:	f8042c23          	sw	zero,-104(s0)
    1610:	00058493          	mv	s1,a1
    1614:	02058863          	beqz	a1,1644 <.L247>
    1618:	00078c13          	mv	s8,a5
    161c:	00c00793          	li	a5,12
    1620:	00068d93          	mv	s11,a3
    1624:	0187e663          	bltu	a5,s8,1630 <.L197>
    1628:	00600793          	li	a5,6
    162c:	04fc1e63          	bne	s8,a5,1688 <.L198>

00001630 <.L197>:
    1630:	000d8a63          	beqz	s11,1644 <.L247>
    1634:	f7c42703          	lw	a4,-132(s0)
    1638:	00100793          	li	a5,1
    163c:	00f70463          	beq	a4,a5,1644 <.L247>
    1640:	f7042483          	lw	s1,-144(s0)

00001644 <.L247>:
    1644:	f6040113          	addi	sp,s0,-160
    1648:	09c12083          	lw	ra,156(sp)
    164c:	00048513          	mv	a0,s1
    1650:	09812403          	lw	s0,152(sp)
    1654:	09412483          	lw	s1,148(sp)
    1658:	09012903          	lw	s2,144(sp)
    165c:	08c12983          	lw	s3,140(sp)
    1660:	08812a03          	lw	s4,136(sp)
    1664:	08412a83          	lw	s5,132(sp)
    1668:	08012b03          	lw	s6,128(sp)
    166c:	07c12b83          	lw	s7,124(sp)
    1670:	07812c03          	lw	s8,120(sp)
    1674:	07412c83          	lw	s9,116(sp)
    1678:	07012d03          	lw	s10,112(sp)
    167c:	06c12d83          	lw	s11,108(sp)
    1680:	0a010113          	addi	sp,sp,160
    1684:	00008067          	ret

00001688 <.L198>:
    1688:	00000a97          	auipc	s5,0x0
    168c:	000aaa83          	lw	s5,0(s5) # 1688 <.L198>
    1690:	00000517          	auipc	a0,0x0
    1694:	00050513          	mv	a0,a0
    1698:	004a87b3          	add	a5,s5,tp
    169c:	0007a783          	lw	a5,0(a5)
    16a0:	f8f42223          	sw	a5,-124(s0)
    16a4:	00000097          	auipc	ra,0x0
    16a8:	000080e7          	jalr	ra # 16a4 <.L198+0x1c>
    16ac:	00000517          	auipc	a0,0x0
    16b0:	00050513          	mv	a0,a0
    16b4:	00000097          	auipc	ra,0x0
    16b8:	000080e7          	jalr	ra # 16b4 <.L198+0x2c>
    16bc:	f8c42783          	lw	a5,-116(s0)
    16c0:	00079863          	bnez	a5,16d0 <.L201>
    16c4:	00000797          	auipc	a5,0x0
    16c8:	0007a783          	lw	a5,0(a5) # 16c4 <.L198+0x3c>
    16cc:	f8f42623          	sw	a5,-116(s0)

000016d0 <.L201>:
    16d0:	f8c42783          	lw	a5,-116(s0)
    16d4:	000c0513          	mv	a0,s8
    16d8:	fa042823          	sw	zero,-80(s0)
    16dc:	faf42023          	sw	a5,-96(s0)
    16e0:	fa942e23          	sw	s1,-68(s0)
    16e4:	fb842223          	sw	s8,-92(s0)
    16e8:	00000097          	auipc	ra,0x0
    16ec:	000080e7          	jalr	ra # 16e8 <.L201+0x18>
    16f0:	f8a42023          	sw	a0,-128(s0)
    16f4:	faa42423          	sw	a0,-88(s0)
    16f8:	00000517          	auipc	a0,0x0
    16fc:	00050513          	mv	a0,a0
    1700:	00000097          	auipc	ra,0x0
    1704:	000080e7          	jalr	ra # 1700 <.L201+0x30>
    1708:	00000617          	auipc	a2,0x0
    170c:	00060613          	mv	a2,a2
    1710:	00000597          	auipc	a1,0x0
    1714:	00058593          	mv	a1,a1
    1718:	fa040513          	addi	a0,s0,-96
    171c:	00000097          	auipc	ra,0x0
    1720:	000080e7          	jalr	ra # 171c <.L201+0x4c>
    1724:	00050b93          	mv	s7,a0
    1728:	00000517          	auipc	a0,0x0
    172c:	00050513          	mv	a0,a0
    1730:	00000097          	auipc	ra,0x0
    1734:	000080e7          	jalr	ra # 1730 <.L201+0x60>
    1738:	060b8a63          	beqz	s7,17ac <.L202>
    173c:	000ba783          	lw	a5,0(s7)
    1740:	00000717          	auipc	a4,0x0
    1744:	00072703          	lw	a4,0(a4) # 1740 <.L201+0x70>
    1748:	00072703          	lw	a4,0(a4)
    174c:	00c7a683          	lw	a3,12(a5)
    1750:	04e69e63          	bne	a3,a4,17ac <.L202>
    1754:	0147a483          	lw	s1,20(a5)
    1758:	020d8263          	beqz	s11,177c <.L203>
    175c:	0107a703          	lw	a4,16(a5)
    1760:	0187a683          	lw	a3,24(a5)
    1764:	f7c42583          	lw	a1,-132(s0)
    1768:	00872503          	lw	a0,8(a4)
    176c:	00048613          	mv	a2,s1
    1770:	00000097          	auipc	ra,0x0
    1774:	000080e7          	jalr	ra # 1770 <.L201+0xa0>
    1778:	00050493          	mv	s1,a0

0000177c <.L203>:
    177c:	00000517          	auipc	a0,0x0
    1780:	00050513          	mv	a0,a0
    1784:	00000097          	auipc	ra,0x0
    1788:	000080e7          	jalr	ra # 1784 <.L203+0x8>
    178c:	00000517          	auipc	a0,0x0
    1790:	00050513          	mv	a0,a0
    1794:	00000097          	auipc	ra,0x0
    1798:	000080e7          	jalr	ra # 1794 <.L203+0x18>
    179c:	f8442783          	lw	a5,-124(s0)
    17a0:	004a8ab3          	add	s5,s5,tp
    17a4:	00faa023          	sw	a5,0(s5)
    17a8:	e9dff06f          	j	1644 <.L247>

000017ac <.L202>:
    17ac:	00000b17          	auipc	s6,0x0
    17b0:	000b2b03          	lw	s6,0(s6) # 17ac <.L202>

000017b4 <.L204>:
    17b4:	000b1863          	bnez	s6,17c4 <.L207>

000017b8 <.L273>:
    17b8:	00000d17          	auipc	s10,0x0
    17bc:	000d0d13          	mv	s10,s10
    17c0:	15c0006f          	j	191c <.L206>

000017c4 <.L207>:
    17c4:	f8c42503          	lw	a0,-116(s0)
    17c8:	00cb0593          	addi	a1,s6,12
    17cc:	00000097          	auipc	ra,0x0
    17d0:	000080e7          	jalr	ra # 17cc <.L207+0x8>
    17d4:	0e050863          	beqz	a0,18c4 <.L205>
    17d8:	00054663          	bltz	a0,17e4 <.L233>
    17dc:	000b2b03          	lw	s6,0(s6)
    17e0:	fd5ff06f          	j	17b4 <.L204>

000017e4 <.L233>:
    17e4:	00000b13          	li	s6,0
    17e8:	fd1ff06f          	j	17b8 <.L273>

000017ec <.L210>:
    17ec:	00054783          	lbu	a5,0(a0) # 178c <.L203+0x10>
    17f0:	18078263          	beqz	a5,1974 <.L209>
    17f4:	1840006f          	j	1978 <.L211>

000017f8 <.L213>:
    17f8:	001a0a13          	addi	s4,s4,1
    17fc:	2240006f          	j	1a20 <.L212>

00001800 <.L217>:
    1800:	00178793          	addi	a5,a5,1
    1804:	001a0a13          	addi	s4,s4,1
    1808:	fee78fa3          	sb	a4,-1(a5)

0000180c <.L214>:
    180c:	000a4703          	lbu	a4,0(s4)
    1810:	00070663          	beqz	a4,181c <.L216>
    1814:	03a00693          	li	a3,58
    1818:	fed714e3          	bne	a4,a3,1800 <.L217>

0000181c <.L216>:
    181c:	00078023          	sb	zero,0(a5)
    1820:	00000797          	auipc	a5,0x0
    1824:	0007a783          	lw	a5,0(a5) # 1820 <.L216+0x4>
    1828:	0007a783          	lw	a5,0(a5)
    182c:	20078863          	beqz	a5,1a3c <.L215>
    1830:	f8842503          	lw	a0,-120(s0)
    1834:	02f00593          	li	a1,47
    1838:	00000097          	auipc	ra,0x0
    183c:	000080e7          	jalr	ra # 1838 <.L216+0x1c>
    1840:	1e051063          	bnez	a0,1a20 <.L212>
    1844:	1f80006f          	j	1a3c <.L215>

00001848 <.L234>:
    1848:	f8842783          	lw	a5,-120(s0)
    184c:	fc1ff06f          	j	180c <.L214>

00001850 <.L220>:
    1850:	fff00793          	li	a5,-1
    1854:	2af51a63          	bne	a0,a5,1b08 <.L222>

00001858 <.L208>:
    1858:	f9842503          	lw	a0,-104(s0)
    185c:	00000097          	auipc	ra,0x0
    1860:	000080e7          	jalr	ra # 185c <.L208+0x4>
    1864:	00000517          	auipc	a0,0x0
    1868:	00050513          	mv	a0,a0
    186c:	00000097          	auipc	ra,0x0
    1870:	000080e7          	jalr	ra # 186c <.L208+0x14>
    1874:	00000517          	auipc	a0,0x0
    1878:	00050513          	mv	a0,a0
    187c:	00000097          	auipc	ra,0x0
    1880:	000080e7          	jalr	ra # 187c <.L208+0x24>
    1884:	f8442783          	lw	a5,-124(s0)
    1888:	004a8ab3          	add	s5,s5,tp
    188c:	00faa023          	sw	a5,0(s5)
    1890:	da1ff06f          	j	1630 <.L197>

00001894 <.L223>:
    1894:	00178793          	addi	a5,a5,1
    1898:	21c0006f          	j	1ab4 <.L221>

0000189c <.L226>:
    189c:	00000717          	auipc	a4,0x0
    18a0:	00072703          	lw	a4,0(a4) # 189c <.L226>
    18a4:	000ba783          	lw	a5,0(s7)
    18a8:	00072703          	lw	a4,0(a4)
    18ac:	0197a823          	sw	s9,16(a5)
    18b0:	00e7a623          	sw	a4,12(a5)
    18b4:	f9c42703          	lw	a4,-100(s0)
    18b8:	0127aa23          	sw	s2,20(a5)
    18bc:	00e7ac23          	sw	a4,24(a5)
    18c0:	3580006f          	j	1c18 <.L228>

000018c4 <.L205>:
    18c4:	004b2d03          	lw	s10,4(s6)
    18c8:	02f00793          	li	a5,47
    18cc:	000d4703          	lbu	a4,0(s10) # 17b8 <.L273>
    18d0:	04f70663          	beq	a4,a5,191c <.L206>
    18d4:	00000593          	li	a1,0
    18d8:	00000097          	auipc	ra,0x0
    18dc:	000080e7          	jalr	ra # 18d8 <.L205+0x14>
    18e0:	00050913          	mv	s2,a0
    18e4:	f6050ae3          	beqz	a0,1858 <.L208>
    18e8:	00050613          	mv	a2,a0
    18ec:	000d0693          	mv	a3,s10
    18f0:	00000597          	auipc	a1,0x0
    18f4:	00058593          	mv	a1,a1
    18f8:	f9840513          	addi	a0,s0,-104
    18fc:	00000097          	auipc	ra,0x0
    1900:	000080e7          	jalr	ra # 18fc <.L205+0x38>
    1904:	00050993          	mv	s3,a0
    1908:	00090513          	mv	a0,s2
    190c:	00000097          	auipc	ra,0x0
    1910:	000080e7          	jalr	ra # 190c <.L205+0x48>
    1914:	f409c2e3          	bltz	s3,1858 <.L208>
    1918:	f9842d03          	lw	s10,-104(s0)

0000191c <.L206>:
    191c:	00000797          	auipc	a5,0x0
    1920:	00078793          	mv	a5,a5
    1924:	018787b3          	add	a5,a5,s8
    1928:	0007c903          	lbu	s2,0(a5) # 191c <.L206>
    192c:	000c0513          	mv	a0,s8
    1930:	00000797          	auipc	a5,0x0
    1934:	00078793          	mv	a5,a5
    1938:	00f90933          	add	s2,s2,a5
    193c:	00000097          	auipc	ra,0x0
    1940:	000080e7          	jalr	ra # 193c <.L206+0x20>
    1944:	00000597          	auipc	a1,0x0
    1948:	00058593          	mv	a1,a1
    194c:	00050993          	mv	s3,a0
    1950:	00000097          	auipc	ra,0x0
    1954:	000080e7          	jalr	ra # 1950 <.L206+0x34>
    1958:	00050e63          	beqz	a0,1974 <.L209>
    195c:	00000517          	auipc	a0,0x0
    1960:	00050513          	mv	a0,a0
    1964:	00000097          	auipc	ra,0x0
    1968:	000080e7          	jalr	ra # 1964 <.L206+0x48>
    196c:	00050a13          	mv	s4,a0
    1970:	e6051ee3          	bnez	a0,17ec <.L210>

00001974 <.L209>:
    1974:	00098a13          	mv	s4,s3

00001978 <.L211>:
    1978:	f8c42503          	lw	a0,-116(s0)
    197c:	00000097          	auipc	ra,0x0
    1980:	000080e7          	jalr	ra # 197c <.L211+0x4>
    1984:	00050993          	mv	s3,a0
    1988:	00090513          	mv	a0,s2
    198c:	00000097          	auipc	ra,0x0
    1990:	000080e7          	jalr	ra # 198c <.L211+0x14>
    1994:	01350533          	add	a0,a0,s3
    1998:	01c50513          	addi	a0,a0,28 # 1978 <.L211>
    199c:	ff057513          	andi	a0,a0,-16
    19a0:	40a10133          	sub	sp,sp,a0
    19a4:	00f10793          	addi	a5,sp,15
    19a8:	ff07f793          	andi	a5,a5,-16
    19ac:	00090593          	mv	a1,s2
    19b0:	00078513          	mv	a0,a5
    19b4:	f6f42c23          	sw	a5,-136(s0)
    19b8:	00000097          	auipc	ra,0x0
    19bc:	000080e7          	jalr	ra # 19b8 <.L211+0x40>
    19c0:	f8c42583          	lw	a1,-116(s0)
    19c4:	02f00793          	li	a5,47
    19c8:	00f50023          	sb	a5,0(a0)
    19cc:	00098613          	mv	a2,s3
    19d0:	000500a3          	sb	zero,1(a0)
    19d4:	00150513          	addi	a0,a0,1
    19d8:	00000097          	auipc	ra,0x0
    19dc:	000080e7          	jalr	ra # 19d8 <.L211+0x60>
    19e0:	00000597          	auipc	a1,0x0
    19e4:	00058593          	mv	a1,a1
    19e8:	01350533          	add	a0,a0,s3
    19ec:	00000097          	auipc	ra,0x0
    19f0:	000080e7          	jalr	ra # 19ec <.L211+0x74>
    19f4:	000a0513          	mv	a0,s4
    19f8:	00000097          	auipc	ra,0x0
    19fc:	000080e7          	jalr	ra # 19f8 <.L211+0x80>
    1a00:	01850513          	addi	a0,a0,24
    1a04:	ff057513          	andi	a0,a0,-16
    1a08:	40a10133          	sub	sp,sp,a0
    1a0c:	00f10793          	addi	a5,sp,15
    1a10:	ff07f793          	andi	a5,a5,-16
    1a14:	f8f42423          	sw	a5,-120(s0)
    1a18:	f9c40793          	addi	a5,s0,-100
    1a1c:	f6f42a23          	sw	a5,-140(s0)

00001a20 <.L212>:
    1a20:	000a4783          	lbu	a5,0(s4)
    1a24:	03a00713          	li	a4,58
    1a28:	dce788e3          	beq	a5,a4,17f8 <.L213>
    1a2c:	e0079ee3          	bnez	a5,1848 <.L234>
    1a30:	f8842783          	lw	a5,-120(s0)
    1a34:	04300713          	li	a4,67
    1a38:	00e79023          	sh	a4,0(a5) # 1930 <.L206+0x14>

00001a3c <.L215>:
    1a3c:	f8842503          	lw	a0,-120(s0)
    1a40:	00000597          	auipc	a1,0x0
    1a44:	00058593          	mv	a1,a1
    1a48:	00000097          	auipc	ra,0x0
    1a4c:	000080e7          	jalr	ra # 1a48 <.L215+0xc>
    1a50:	e00504e3          	beqz	a0,1858 <.L208>
    1a54:	f8842503          	lw	a0,-120(s0)
    1a58:	00000597          	auipc	a1,0x0
    1a5c:	00058593          	mv	a1,a1
    1a60:	00000097          	auipc	ra,0x0
    1a64:	000080e7          	jalr	ra # 1a60 <.L215+0x24>
    1a68:	de0508e3          	beqz	a0,1858 <.L208>
    1a6c:	f7842603          	lw	a2,-136(s0)
    1a70:	f8842583          	lw	a1,-120(s0)
    1a74:	000b0693          	mv	a3,s6
    1a78:	000d0513          	mv	a0,s10
    1a7c:	00000097          	auipc	ra,0x0
    1a80:	000080e7          	jalr	ra # 1a7c <.L215+0x40>
    1a84:	00050c93          	mv	s9,a0
    1a88:	f8050ce3          	beqz	a0,1a20 <.L212>
    1a8c:	f7442703          	lw	a4,-140(s0)
    1a90:	00100693          	li	a3,1
    1a94:	00048613          	mv	a2,s1
    1a98:	000b0593          	mv	a1,s6
    1a9c:	00000097          	auipc	ra,0x0
    1aa0:	000080e7          	jalr	ra # 1a9c <.L215+0x60>
    1aa4:	00050913          	mv	s2,a0
    1aa8:	da0514e3          	bnez	a0,1850 <.L220>
    1aac:	010c8813          	addi	a6,s9,16
    1ab0:	00000793          	li	a5,0

00001ab4 <.L221>:
    1ab4:	00082503          	lw	a0,0(a6) # 910 <.L2+0xc>
    1ab8:	f60504e3          	beqz	a0,1a20 <.L212>
    1abc:	f7442703          	lw	a4,-140(s0)
    1ac0:	00100693          	li	a3,1
    1ac4:	00048613          	mv	a2,s1
    1ac8:	000b0593          	mv	a1,s6
    1acc:	f6f42423          	sw	a5,-152(s0)
    1ad0:	f7042623          	sw	a6,-148(s0)
    1ad4:	00000097          	auipc	ra,0x0
    1ad8:	000080e7          	jalr	ra # 1ad4 <.L221+0x20>
    1adc:	fff00893          	li	a7,-1
    1ae0:	00050913          	mv	s2,a0
    1ae4:	d7150ae3          	beq	a0,a7,1858 <.L208>
    1ae8:	f6c42803          	lw	a6,-148(s0)
    1aec:	f6842783          	lw	a5,-152(s0)
    1af0:	00480813          	addi	a6,a6,4
    1af4:	da0500e3          	beqz	a0,1894 <.L223>
    1af8:	00478793          	addi	a5,a5,4
    1afc:	00279793          	slli	a5,a5,0x2
    1b00:	00fc87b3          	add	a5,s9,a5
    1b04:	0007ac83          	lw	s9,0(a5)

00001b08 <.L222>:
    1b08:	f9842503          	lw	a0,-104(s0)
    1b0c:	00000097          	auipc	ra,0x0
    1b10:	000080e7          	jalr	ra # 1b0c <.L222+0x4>
    1b14:	d80b94e3          	bnez	s7,189c <.L226>
    1b18:	00048513          	mv	a0,s1
    1b1c:	00000097          	auipc	ra,0x0
    1b20:	000080e7          	jalr	ra # 1b1c <.L222+0x14>
    1b24:	00150a13          	addi	s4,a0,1
    1b28:	f8042503          	lw	a0,-128(s0)
    1b2c:	00000097          	auipc	ra,0x0
    1b30:	000080e7          	jalr	ra # 1b2c <.L222+0x24>
    1b34:	01e98793          	addi	a5,s3,30
    1b38:	00a78533          	add	a0,a5,a0
    1b3c:	01450533          	add	a0,a0,s4
    1b40:	00000097          	auipc	ra,0x0
    1b44:	000080e7          	jalr	ra # 1b40 <.L222+0x38>
    1b48:	00050b13          	mv	s6,a0
    1b4c:	0c050663          	beqz	a0,1c18 <.L228>
    1b50:	000a0613          	mv	a2,s4
    1b54:	00048593          	mv	a1,s1
    1b58:	01c50513          	addi	a0,a0,28
    1b5c:	00000097          	auipc	ra,0x0
    1b60:	000080e7          	jalr	ra # 1b5c <.L222+0x54>
    1b64:	f8c42583          	lw	a1,-116(s0)
    1b68:	01450a33          	add	s4,a0,s4
    1b6c:	00198993          	addi	s3,s3,1
    1b70:	00098613          	mv	a2,s3
    1b74:	000a0513          	mv	a0,s4
    1b78:	00000097          	auipc	ra,0x0
    1b7c:	000080e7          	jalr	ra # 1b78 <.L222+0x70>
    1b80:	f8042583          	lw	a1,-128(s0)
    1b84:	013a09b3          	add	s3,s4,s3
    1b88:	00098513          	mv	a0,s3
    1b8c:	00000097          	auipc	ra,0x0
    1b90:	000080e7          	jalr	ra # 1b8c <.L222+0x84>
    1b94:	00000797          	auipc	a5,0x0
    1b98:	0007a783          	lw	a5,0(a5) # 1b94 <.L222+0x8c>
    1b9c:	0007a783          	lw	a5,0(a5)
    1ba0:	014b2023          	sw	s4,0(s6)
    1ba4:	018b2223          	sw	s8,4(s6)
    1ba8:	00fb2623          	sw	a5,12(s6)
    1bac:	f9c42783          	lw	a5,-100(s0)
    1bb0:	013b2423          	sw	s3,8(s6)
    1bb4:	019b2823          	sw	s9,16(s6)
    1bb8:	00fb2c23          	sw	a5,24(s6)
    1bbc:	012b2a23          	sw	s2,20(s6)
    1bc0:	00000517          	auipc	a0,0x0
    1bc4:	00050513          	mv	a0,a0
    1bc8:	00000097          	auipc	ra,0x0
    1bcc:	000080e7          	jalr	ra # 1bc8 <.L222+0xc0>
    1bd0:	00000617          	auipc	a2,0x0
    1bd4:	00060613          	mv	a2,a2
    1bd8:	00000597          	auipc	a1,0x0
    1bdc:	00058593          	mv	a1,a1
    1be0:	000b0513          	mv	a0,s6
    1be4:	00000097          	auipc	ra,0x0
    1be8:	000080e7          	jalr	ra # 1be4 <.L222+0xdc>
    1bec:	00050493          	mv	s1,a0
    1bf0:	00000517          	auipc	a0,0x0
    1bf4:	00050513          	mv	a0,a0
    1bf8:	00000097          	auipc	ra,0x0
    1bfc:	000080e7          	jalr	ra # 1bf8 <.L222+0xf0>
    1c00:	00048663          	beqz	s1,1c0c <.L229>
    1c04:	0004a783          	lw	a5,0(s1)
    1c08:	01678863          	beq	a5,s6,1c18 <.L228>

00001c0c <.L229>:
    1c0c:	000b0513          	mv	a0,s6
    1c10:	00000097          	auipc	ra,0x0
    1c14:	000080e7          	jalr	ra # 1c10 <.L229+0x4>

00001c18 <.L228>:
    1c18:	f8442783          	lw	a5,-124(s0)
    1c1c:	004a8ab3          	add	s5,s5,tp
    1c20:	00faa023          	sw	a5,0(s5)
    1c24:	020d8063          	beqz	s11,1c44 <.L231>
    1c28:	f9c42683          	lw	a3,-100(s0)
    1c2c:	f7c42583          	lw	a1,-132(s0)
    1c30:	008ca503          	lw	a0,8(s9)
    1c34:	00090613          	mv	a2,s2
    1c38:	00000097          	auipc	ra,0x0
    1c3c:	000080e7          	jalr	ra # 1c38 <.L228+0x20>
    1c40:	00050913          	mv	s2,a0

00001c44 <.L231>:
    1c44:	00000517          	auipc	a0,0x0
    1c48:	00050513          	mv	a0,a0
    1c4c:	00000097          	auipc	ra,0x0
    1c50:	000080e7          	jalr	ra # 1c4c <.L231+0x8>
    1c54:	00000517          	auipc	a0,0x0
    1c58:	00050513          	mv	a0,a0
    1c5c:	00000097          	auipc	ra,0x0
    1c60:	000080e7          	jalr	ra # 1c5c <.L231+0x18>
    1c64:	00090493          	mv	s1,s2
    1c68:	9ddff06f          	j	1644 <.L247>

00001c6c <_nl_find_domain>:
    1c6c:	fa010113          	addi	sp,sp,-96
    1c70:	05312623          	sw	s3,76(sp)
    1c74:	00050993          	mv	s3,a0
    1c78:	00000517          	auipc	a0,0x0
    1c7c:	00050513          	mv	a0,a0
    1c80:	04112e23          	sw	ra,92(sp)
    1c84:	04812c23          	sw	s0,88(sp)
    1c88:	04912a23          	sw	s1,84(sp)
    1c8c:	05412423          	sw	s4,72(sp)
    1c90:	00058493          	mv	s1,a1
    1c94:	05612023          	sw	s6,64(sp)
    1c98:	00068a13          	mv	s4,a3
    1c9c:	00060b13          	mv	s6,a2
    1ca0:	05212823          	sw	s2,80(sp)
    1ca4:	05512223          	sw	s5,68(sp)
    1ca8:	00000097          	auipc	ra,0x0
    1cac:	000080e7          	jalr	ra # 1ca8 <_nl_find_domain+0x3c>
    1cb0:	00098513          	mv	a0,s3
    1cb4:	00000097          	auipc	ra,0x0
    1cb8:	000080e7          	jalr	ra # 1cb4 <_nl_find_domain+0x48>
    1cbc:	00150613          	addi	a2,a0,1 # 1c79 <_nl_find_domain+0xd>
    1cc0:	00012423          	sw	zero,8(sp)
    1cc4:	01612223          	sw	s6,4(sp)
    1cc8:	00012023          	sw	zero,0(sp)
    1ccc:	00000893          	li	a7,0
    1cd0:	00000813          	li	a6,0
    1cd4:	00000793          	li	a5,0
    1cd8:	00048713          	mv	a4,s1
    1cdc:	00000693          	li	a3,0
    1ce0:	00098593          	mv	a1,s3
    1ce4:	00000517          	auipc	a0,0x0
    1ce8:	00050513          	mv	a0,a0
    1cec:	00000097          	auipc	ra,0x0
    1cf0:	000080e7          	jalr	ra # 1cec <_nl_find_domain+0x80>
    1cf4:	00050413          	mv	s0,a0
    1cf8:	00000517          	auipc	a0,0x0
    1cfc:	00050513          	mv	a0,a0
    1d00:	00000097          	auipc	ra,0x0
    1d04:	000080e7          	jalr	ra # 1d00 <_nl_find_domain+0x94>
    1d08:	08040463          	beqz	s0,1d90 <.L2>
    1d0c:	00442783          	lw	a5,4(s0)
    1d10:	00f04a63          	bgtz	a5,1d24 <.L3>
    1d14:	000a0593          	mv	a1,s4
    1d18:	00040513          	mv	a0,s0
    1d1c:	00000097          	auipc	ra,0x0
    1d20:	000080e7          	jalr	ra # 1d1c <_nl_find_domain+0xb0>

00001d24 <.L3>:
    1d24:	00842783          	lw	a5,8(s0)
    1d28:	01040493          	addi	s1,s0,16
    1d2c:	04078a63          	beqz	a5,1d80 <.L5>

00001d30 <.L1>:
    1d30:	05c12083          	lw	ra,92(sp)
    1d34:	00040513          	mv	a0,s0
    1d38:	05812403          	lw	s0,88(sp)
    1d3c:	05412483          	lw	s1,84(sp)
    1d40:	05012903          	lw	s2,80(sp)
    1d44:	04c12983          	lw	s3,76(sp)
    1d48:	04812a03          	lw	s4,72(sp)
    1d4c:	04412a83          	lw	s5,68(sp)
    1d50:	04012b03          	lw	s6,64(sp)
    1d54:	06010113          	addi	sp,sp,96
    1d58:	00008067          	ret

00001d5c <.L7>:
    1d5c:	00452783          	lw	a5,4(a0) # 1cfc <_nl_find_domain+0x90>
    1d60:	00f04863          	bgtz	a5,1d70 <.L6>
    1d64:	000a0593          	mv	a1,s4
    1d68:	00000097          	auipc	ra,0x0
    1d6c:	000080e7          	jalr	ra # 1d68 <.L7+0xc>

00001d70 <.L6>:
    1d70:	00092783          	lw	a5,0(s2)
    1d74:	00448493          	addi	s1,s1,4
    1d78:	0087a783          	lw	a5,8(a5)
    1d7c:	fa079ae3          	bnez	a5,1d30 <.L1>

00001d80 <.L5>:
    1d80:	0004a503          	lw	a0,0(s1)
    1d84:	00048913          	mv	s2,s1
    1d88:	fc051ae3          	bnez	a0,1d5c <.L7>
    1d8c:	fa5ff06f          	j	1d30 <.L1>

00001d90 <.L2>:
    1d90:	00048513          	mv	a0,s1
    1d94:	00000097          	auipc	ra,0x0
    1d98:	000080e7          	jalr	ra # 1d94 <.L2+0x4>
    1d9c:	00050a93          	mv	s5,a0
    1da0:	02050c63          	beqz	a0,1dd8 <.L8>
    1da4:	00000097          	auipc	ra,0x0
    1da8:	000080e7          	jalr	ra # 1da4 <.L2+0x14>
    1dac:	00150613          	addi	a2,a0,1
    1db0:	00060513          	mv	a0,a2
    1db4:	00c12e23          	sw	a2,28(sp)
    1db8:	00000097          	auipc	ra,0x0
    1dbc:	000080e7          	jalr	ra # 1db8 <.L2+0x28>
    1dc0:	00050493          	mv	s1,a0
    1dc4:	f60506e3          	beqz	a0,1d30 <.L1>
    1dc8:	01c12603          	lw	a2,28(sp)
    1dcc:	000a8593          	mv	a1,s5
    1dd0:	00000097          	auipc	ra,0x0
    1dd4:	000080e7          	jalr	ra # 1dd0 <.L2+0x40>

00001dd8 <.L8>:
    1dd8:	03c10793          	addi	a5,sp,60
    1ddc:	03810713          	addi	a4,sp,56
    1de0:	03410693          	addi	a3,sp,52
    1de4:	03010613          	addi	a2,sp,48
    1de8:	02c10593          	addi	a1,sp,44
    1dec:	00048513          	mv	a0,s1
    1df0:	00000097          	auipc	ra,0x0
    1df4:	000080e7          	jalr	ra # 1df0 <.L8+0x18>
    1df8:	fff00793          	li	a5,-1
    1dfc:	00050913          	mv	s2,a0
    1e00:	f2f508e3          	beq	a0,a5,1d30 <.L1>
    1e04:	00000517          	auipc	a0,0x0
    1e08:	00050513          	mv	a0,a0
    1e0c:	00000097          	auipc	ra,0x0
    1e10:	000080e7          	jalr	ra # 1e0c <.L8+0x34>
    1e14:	00098513          	mv	a0,s3
    1e18:	00000097          	auipc	ra,0x0
    1e1c:	000080e7          	jalr	ra # 1e18 <.L8+0x40>
    1e20:	00100793          	li	a5,1
    1e24:	00f12423          	sw	a5,8(sp)
    1e28:	03012783          	lw	a5,48(sp)
    1e2c:	03c12883          	lw	a7,60(sp)
    1e30:	03812803          	lw	a6,56(sp)
    1e34:	00f12023          	sw	a5,0(sp)
    1e38:	02c12703          	lw	a4,44(sp)
    1e3c:	03412783          	lw	a5,52(sp)
    1e40:	00150613          	addi	a2,a0,1 # 1e05 <.L8+0x2d>
    1e44:	01612223          	sw	s6,4(sp)
    1e48:	00090693          	mv	a3,s2
    1e4c:	00098593          	mv	a1,s3
    1e50:	00000517          	auipc	a0,0x0
    1e54:	00050513          	mv	a0,a0
    1e58:	00000097          	auipc	ra,0x0
    1e5c:	000080e7          	jalr	ra # 1e58 <.L8+0x80>
    1e60:	00050413          	mv	s0,a0
    1e64:	00000517          	auipc	a0,0x0
    1e68:	00050513          	mv	a0,a0
    1e6c:	00000097          	auipc	ra,0x0
    1e70:	000080e7          	jalr	ra # 1e6c <.L8+0x94>
    1e74:	02040663          	beqz	s0,1ea0 <.L13>
    1e78:	00442783          	lw	a5,4(s0)
    1e7c:	00f04a63          	bgtz	a5,1e90 <.L14>
    1e80:	000a0593          	mv	a1,s4
    1e84:	00040513          	mv	a0,s0
    1e88:	00000097          	auipc	ra,0x0
    1e8c:	000080e7          	jalr	ra # 1e88 <.L8+0xb0>

00001e90 <.L14>:
    1e90:	00842783          	lw	a5,8(s0)
    1e94:	01040993          	addi	s3,s0,16
    1e98:	04078263          	beqz	a5,1edc <.L16>

00001e9c <.L15>:
    1e9c:	040a9863          	bnez	s5,1eec <.L17>

00001ea0 <.L13>:
    1ea0:	00197913          	andi	s2,s2,1
    1ea4:	e80906e3          	beqz	s2,1d30 <.L1>
    1ea8:	03c12503          	lw	a0,60(sp)
    1eac:	00000097          	auipc	ra,0x0
    1eb0:	000080e7          	jalr	ra # 1eac <.L13+0xc>
    1eb4:	e7dff06f          	j	1d30 <.L1>

00001eb8 <.L20>:
    1eb8:	00452783          	lw	a5,4(a0) # 1e68 <.L8+0x90>
    1ebc:	00f04863          	bgtz	a5,1ecc <.L19>
    1ec0:	000a0593          	mv	a1,s4
    1ec4:	00000097          	auipc	ra,0x0
    1ec8:	000080e7          	jalr	ra # 1ec4 <.L20+0xc>

00001ecc <.L19>:
    1ecc:	000b2783          	lw	a5,0(s6)
    1ed0:	00498993          	addi	s3,s3,4
    1ed4:	0087a783          	lw	a5,8(a5)
    1ed8:	fc0792e3          	bnez	a5,1e9c <.L15>

00001edc <.L16>:
    1edc:	0009a503          	lw	a0,0(s3)
    1ee0:	00098b13          	mv	s6,s3
    1ee4:	fc051ae3          	bnez	a0,1eb8 <.L20>
    1ee8:	fb5ff06f          	j	1e9c <.L15>

00001eec <.L17>:
    1eec:	00048513          	mv	a0,s1
    1ef0:	00000097          	auipc	ra,0x0
    1ef4:	000080e7          	jalr	ra # 1ef0 <.L17+0x4>
    1ef8:	fa9ff06f          	j	1ea0 <.L13>

00001efc <_nl_load_domain>:
    1efc:	ee010113          	addi	sp,sp,-288
    1f00:	10812c23          	sw	s0,280(sp)
    1f04:	00000417          	auipc	s0,0x0
    1f08:	00040413          	mv	s0,s0
    1f0c:	00842703          	lw	a4,8(s0) # 1f0c <_nl_load_domain+0x10>
    1f10:	10912a23          	sw	s1,276(sp)
    1f14:	10112e23          	sw	ra,284(sp)
    1f18:	11212823          	sw	s2,272(sp)
    1f1c:	11312623          	sw	s3,268(sp)
    1f20:	11412423          	sw	s4,264(sp)
    1f24:	11512223          	sw	s5,260(sp)
    1f28:	11612023          	sw	s6,256(sp)
    1f2c:	0f712e23          	sw	s7,252(sp)
    1f30:	0f812c23          	sw	s8,248(sp)
    1f34:	0f912a23          	sw	s9,244(sp)
    1f38:	0fa12823          	sw	s10,240(sp)
    1f3c:	0fb12623          	sw	s11,236(sp)
    1f40:	00a12a23          	sw	a0,20(sp)
    1f44:	04b12023          	sw	a1,64(sp)
    1f48:	b2020493          	addi	s1,tp,-1248 # fffffb20 <.L53+0xfffb1d34>
    1f4c:	02970663          	beq	a4,s1,1f78 <.L2>
    1f50:	00100693          	li	a3,1

00001f54 <.L1^B1>:
    1f54:	1004272f          	lr.w	a4,(s0)
    1f58:	00071663          	bnez	a4,1f64 <.L1^B2>
    1f5c:	1cd4262f          	sc.w.aq	a2,a3,(s0)
    1f60:	fe061ae3          	bnez	a2,1f54 <.L1^B1>

00001f64 <.L1^B2>:
    1f64:	00070863          	beqz	a4,1f74 <.L3>
    1f68:	00040513          	mv	a0,s0
    1f6c:	00000097          	auipc	ra,0x0
    1f70:	000080e7          	jalr	ra # 1f6c <.L1^B2+0x8>

00001f74 <.L3>:
    1f74:	00942423          	sw	s1,8(s0)

00001f78 <.L2>:
    1f78:	00442783          	lw	a5,4(s0)
    1f7c:	00178793          	addi	a5,a5,1
    1f80:	00f42223          	sw	a5,4(s0)
    1f84:	01412783          	lw	a5,20(sp)
    1f88:	0047a783          	lw	a5,4(a5)
    1f8c:	22079463          	bnez	a5,21b4 <.L4>
    1f90:	01412783          	lw	a5,20(sp)
    1f94:	fff00913          	li	s2,-1
    1f98:	0007a503          	lw	a0,0(a5)
    1f9c:	0127a223          	sw	s2,4(a5)
    1fa0:	0007a423          	sw	zero,8(a5)
    1fa4:	20050263          	beqz	a0,21a8 <.L6>
    1fa8:	00000593          	li	a1,0
    1fac:	00000097          	auipc	ra,0x0
    1fb0:	000080e7          	jalr	ra # 1fac <.L2+0x34>
    1fb4:	00050493          	mv	s1,a0
    1fb8:	1f250863          	beq	a0,s2,21a8 <.L6>
    1fbc:	06010593          	addi	a1,sp,96
    1fc0:	00000097          	auipc	ra,0x0
    1fc4:	000080e7          	jalr	ra # 1fc0 <.L2+0x48>
    1fc8:	08051e63          	bnez	a0,2064 <.L8>
    1fcc:	09012783          	lw	a5,144(sp)
    1fd0:	00f12c23          	sw	a5,24(sp)
    1fd4:	09412783          	lw	a5,148(sp)
    1fd8:	08079663          	bnez	a5,2064 <.L8>
    1fdc:	01812703          	lw	a4,24(sp)
    1fe0:	02f00793          	li	a5,47
    1fe4:	08e7f063          	bgeu	a5,a4,2064 <.L8>
    1fe8:	01812583          	lw	a1,24(sp)
    1fec:	00000793          	li	a5,0
    1ff0:	00000813          	li	a6,0
    1ff4:	00048713          	mv	a4,s1
    1ff8:	00200693          	li	a3,2
    1ffc:	00100613          	li	a2,1
    2000:	00000097          	auipc	ra,0x0
    2004:	000080e7          	jalr	ra # 2000 <.L2+0x88>
    2008:	00050413          	mv	s0,a0
    200c:	07251463          	bne	a0,s2,2074 <.L10>
    2010:	01812503          	lw	a0,24(sp)
    2014:	00000097          	auipc	ra,0x0
    2018:	000080e7          	jalr	ra # 2014 <.L2+0x9c>
    201c:	00050413          	mv	s0,a0
    2020:	04050263          	beqz	a0,2064 <.L8>
    2024:	01812903          	lw	s2,24(sp)
    2028:	00000a97          	auipc	s5,0x0
    202c:	000aaa83          	lw	s5,0(s5) # 2028 <.L2+0xb0>
    2030:	00050993          	mv	s3,a0
    2034:	fff00a13          	li	s4,-1
    2038:	00400b13          	li	s6,4

0000203c <.L12>:
    203c:	00090613          	mv	a2,s2
    2040:	00098593          	mv	a1,s3
    2044:	00048513          	mv	a0,s1
    2048:	00000097          	auipc	ra,0x0
    204c:	000080e7          	jalr	ra # 2048 <.L12+0xc>
    2050:	0ea04e63          	bgtz	a0,214c <.L15>
    2054:	01451863          	bne	a0,s4,2064 <.L8>
    2058:	004a87b3          	add	a5,s5,tp
    205c:	0007a783          	lw	a5,0(a5)
    2060:	fd678ee3          	beq	a5,s6,203c <.L12>

00002064 <.L8>:
    2064:	00048513          	mv	a0,s1
    2068:	00000097          	auipc	ra,0x0
    206c:	000080e7          	jalr	ra # 2068 <.L8+0x4>
    2070:	1380006f          	j	21a8 <.L6>

00002074 <.L10>:
    2074:	00048513          	mv	a0,s1
    2078:	00000097          	auipc	ra,0x0
    207c:	000080e7          	jalr	ra # 2078 <.L10+0x4>
    2080:	00042903          	lw	s2,0(s0)
    2084:	950417b7          	lui	a5,0x95041
    2088:	00100713          	li	a4,1
    208c:	2de78793          	addi	a5,a5,734 # 950412de <.L53+0x94ff34f2>
    2090:	02e12623          	sw	a4,44(sp)
    2094:	00000a13          	li	s4,0
    2098:	00f90a63          	beq	s2,a5,20ac <.L13>
    209c:	de1207b7          	lui	a5,0xde120
    20a0:	49578793          	addi	a5,a5,1173 # de120495 <.L53+0xde0d26a9>
    20a4:	0ef91a63          	bne	s2,a5,2198 <.L14>

000020a8 <.L314>:
    20a8:	00100a13          	li	s4,1

000020ac <.L13>:
    20ac:	07800513          	li	a0,120
    20b0:	00000097          	auipc	ra,0x0
    20b4:	000080e7          	jalr	ra # 20b0 <.L13+0x4>
    20b8:	00050493          	mv	s1,a0
    20bc:	0e050663          	beqz	a0,21a8 <.L6>
    20c0:	01412783          	lw	a5,20(sp)
    20c4:	00852023          	sw	s0,0(a0)
    20c8:	01452623          	sw	s4,12(a0)
    20cc:	00a7a423          	sw	a0,8(a5)
    20d0:	02c12783          	lw	a5,44(sp)
    20d4:	00052823          	sw	zero,16(a0)
    20d8:	00f52223          	sw	a5,4(a0)
    20dc:	01812783          	lw	a5,24(sp)
    20e0:	00f52423          	sw	a5,8(a0)
    20e4:	950417b7          	lui	a5,0x95041
    20e8:	2de78793          	addi	a5,a5,734 # 950412de <.L53+0x94ff34f2>
    20ec:	00442503          	lw	a0,4(s0)
    20f0:	12f90c63          	beq	s2,a5,2228 <.L19>
    20f4:	00000097          	auipc	ra,0x0
    20f8:	000080e7          	jalr	ra # 20f4 <.L13+0x48>
    20fc:	41055713          	srai	a4,a0,0x10
    2100:	00100793          	li	a5,1
    2104:	00050993          	mv	s3,a0
    2108:	16e7f463          	bgeu	a5,a4,2270 <.L20>

0000210c <.L39>:
    210c:	0104a503          	lw	a0,16(s1)
    2110:	00000097          	auipc	ra,0x0
    2114:	000080e7          	jalr	ra # 2110 <.L39+0x4>
    2118:	02c12783          	lw	a5,44(sp)
    211c:	00079463          	bnez	a5,2124 <.L39+0x18>
    2120:	2500106f          	j	3370 <.L132>
    2124:	01812583          	lw	a1,24(sp)
    2128:	00040513          	mv	a0,s0
    212c:	00000097          	auipc	ra,0x0
    2130:	000080e7          	jalr	ra # 212c <.L39+0x20>

00002134 <.L133>:
    2134:	00048513          	mv	a0,s1
    2138:	00000097          	auipc	ra,0x0
    213c:	000080e7          	jalr	ra # 2138 <.L133+0x4>
    2140:	01412783          	lw	a5,20(sp)
    2144:	0007a423          	sw	zero,8(a5)
    2148:	0600006f          	j	21a8 <.L6>

0000214c <.L15>:
    214c:	40a90933          	sub	s2,s2,a0
    2150:	00a989b3          	add	s3,s3,a0
    2154:	ee0914e3          	bnez	s2,203c <.L12>
    2158:	00048513          	mv	a0,s1
    215c:	00000097          	auipc	ra,0x0
    2160:	000080e7          	jalr	ra # 215c <.L15+0x10>
    2164:	00042903          	lw	s2,0(s0)
    2168:	950417b7          	lui	a5,0x95041
    216c:	2de78793          	addi	a5,a5,734 # 950412de <.L53+0x94ff34f2>
    2170:	02012623          	sw	zero,44(sp)
    2174:	00000a13          	li	s4,0
    2178:	f2f90ae3          	beq	s2,a5,20ac <.L13>
    217c:	de1207b7          	lui	a5,0xde120
    2180:	49578793          	addi	a5,a5,1173 # de120495 <.L53+0xde0d26a9>
    2184:	f2f902e3          	beq	s2,a5,20a8 <.L314>
    2188:	00040513          	mv	a0,s0
    218c:	00000097          	auipc	ra,0x0
    2190:	000080e7          	jalr	ra # 218c <.L15+0x40>
    2194:	0140006f          	j	21a8 <.L6>

00002198 <.L14>:
    2198:	01812583          	lw	a1,24(sp)
    219c:	00040513          	mv	a0,s0
    21a0:	00000097          	auipc	ra,0x0
    21a4:	000080e7          	jalr	ra # 21a0 <.L14+0x8>

000021a8 <.L6>:
    21a8:	01412703          	lw	a4,20(sp)
    21ac:	00100793          	li	a5,1
    21b0:	00f72223          	sw	a5,4(a4)

000021b4 <.L4>:
    21b4:	00000517          	auipc	a0,0x0
    21b8:	00050513          	mv	a0,a0
    21bc:	00452783          	lw	a5,4(a0) # 21b8 <.L4+0x4>
    21c0:	fff78793          	addi	a5,a5,-1
    21c4:	00f52223          	sw	a5,4(a0)
    21c8:	02079263          	bnez	a5,21ec <.L1>
    21cc:	00000717          	auipc	a4,0x0
    21d0:	00072023          	sw	zero,0(a4) # 21cc <.L4+0x18>
    21d4:	0f50000f          	fence	iorw,ow
    21d8:	08f527af          	amoswap.w	a5,a5,(a0)
    21dc:	00100713          	li	a4,1
    21e0:	00f75663          	bge	a4,a5,21ec <.L1>
    21e4:	00000097          	auipc	ra,0x0
    21e8:	000080e7          	jalr	ra # 21e4 <.L4+0x30>

000021ec <.L1>:
    21ec:	11c12083          	lw	ra,284(sp)
    21f0:	11812403          	lw	s0,280(sp)
    21f4:	11412483          	lw	s1,276(sp)
    21f8:	11012903          	lw	s2,272(sp)
    21fc:	10c12983          	lw	s3,268(sp)
    2200:	10812a03          	lw	s4,264(sp)
    2204:	10412a83          	lw	s5,260(sp)
    2208:	10012b03          	lw	s6,256(sp)
    220c:	0fc12b83          	lw	s7,252(sp)
    2210:	0f812c03          	lw	s8,248(sp)
    2214:	0f412c83          	lw	s9,244(sp)
    2218:	0f012d03          	lw	s10,240(sp)
    221c:	0ec12d83          	lw	s11,236(sp)
    2220:	12010113          	addi	sp,sp,288
    2224:	00008067          	ret

00002228 <.L19>:
    2228:	41055713          	srai	a4,a0,0x10
    222c:	00100793          	li	a5,1
    2230:	00050993          	mv	s3,a0
    2234:	ece7ece3          	bltu	a5,a4,210c <.L39>
    2238:	00842783          	lw	a5,8(s0)
    223c:	01442a83          	lw	s5,20(s0)
    2240:	00f4aa23          	sw	a5,20(s1)
    2244:	00c42783          	lw	a5,12(s0)
    2248:	00f407b3          	add	a5,s0,a5
    224c:	00f4ac23          	sw	a5,24(s1)
    2250:	01042783          	lw	a5,16(s0)
    2254:	0354a623          	sw	s5,44(s1)
    2258:	00f407b3          	add	a5,s0,a5
    225c:	00f4ae23          	sw	a5,28(s1)
    2260:	00200793          	li	a5,2
    2264:	0757f063          	bgeu	a5,s5,22c4 <.L24>
    2268:	01842503          	lw	a0,24(s0)
    226c:	0880006f          	j	22f4 <.L27>

00002270 <.L20>:
    2270:	00842503          	lw	a0,8(s0)
    2274:	00000097          	auipc	ra,0x0
    2278:	000080e7          	jalr	ra # 2274 <.L20+0x4>
    227c:	00a4aa23          	sw	a0,20(s1)
    2280:	00c42503          	lw	a0,12(s0)
    2284:	00000097          	auipc	ra,0x0
    2288:	000080e7          	jalr	ra # 2284 <.L20+0x14>
    228c:	00a40533          	add	a0,s0,a0
    2290:	00a4ac23          	sw	a0,24(s1)
    2294:	01042503          	lw	a0,16(s0)
    2298:	00000097          	auipc	ra,0x0
    229c:	000080e7          	jalr	ra # 2298 <.L20+0x28>
    22a0:	00a40533          	add	a0,s0,a0
    22a4:	00a4ae23          	sw	a0,28(s1)
    22a8:	01442503          	lw	a0,20(s0)
    22ac:	00000097          	auipc	ra,0x0
    22b0:	000080e7          	jalr	ra # 22ac <.L20+0x3c>
    22b4:	02a4a623          	sw	a0,44(s1)
    22b8:	00200793          	li	a5,2
    22bc:	00050a93          	mv	s5,a0
    22c0:	02a7e463          	bltu	a5,a0,22e8 <.L23>

000022c4 <.L24>:
    22c4:	01099993          	slli	s3,s3,0x10
    22c8:	0204a823          	sw	zero,48(s1)
    22cc:	0344aa23          	sw	s4,52(s1)
    22d0:	0109d993          	srli	s3,s3,0x10
    22d4:	e2099ce3          	bnez	s3,210c <.L39>

000022d8 <.L31>:
    22d8:	0204a023          	sw	zero,32(s1)
    22dc:	0204a223          	sw	zero,36(s1)
    22e0:	0204a423          	sw	zero,40(s1)
    22e4:	0100106f          	j	32f4 <.L26>

000022e8 <.L23>:
    22e8:	01842503          	lw	a0,24(s0)
    22ec:	00000097          	auipc	ra,0x0
    22f0:	000080e7          	jalr	ra # 22ec <.L23+0x4>

000022f4 <.L27>:
    22f4:	00a407b3          	add	a5,s0,a0
    22f8:	01099993          	slli	s3,s3,0x10
    22fc:	02f12a23          	sw	a5,52(sp)
    2300:	02f4a823          	sw	a5,48(s1)
    2304:	0344aa23          	sw	s4,52(s1)
    2308:	0109d993          	srli	s3,s3,0x10
    230c:	fc0986e3          	beqz	s3,22d8 <.L31>
    2310:	02442783          	lw	a5,36(s0)
    2314:	00f12e23          	sw	a5,28(sp)
    2318:	950417b7          	lui	a5,0x95041
    231c:	2de78793          	addi	a5,a5,734 # 950412de <.L53+0x94ff34f2>
    2320:	0ef90663          	beq	s2,a5,240c <.L29>
    2324:	01c12783          	lw	a5,28(sp)
    2328:	fa0788e3          	beqz	a5,22d8 <.L31>
    232c:	01c12503          	lw	a0,28(sp)
    2330:	00000097          	auipc	ra,0x0
    2334:	000080e7          	jalr	ra # 2330 <.L27+0x3c>
    2338:	00a12e23          	sw	a0,28(sp)
    233c:	01c42503          	lw	a0,28(s0)
    2340:	00000097          	auipc	ra,0x0
    2344:	000080e7          	jalr	ra # 2340 <.L27+0x4c>
    2348:	02a12023          	sw	a0,32(sp)
    234c:	02042503          	lw	a0,32(s0)
    2350:	00000097          	auipc	ra,0x0
    2354:	000080e7          	jalr	ra # 2350 <.L27+0x5c>

00002358 <.L33>:
    2358:	00a40bb3          	add	s7,s0,a0
    235c:	02012503          	lw	a0,32(sp)
    2360:	00400593          	li	a1,4
    2364:	00000097          	auipc	ra,0x0
    2368:	000080e7          	jalr	ra # 2364 <.L33+0xc>
    236c:	00a12823          	sw	a0,16(sp)
    2370:	d8050ee3          	beqz	a0,210c <.L39>
    2374:	95041d37          	lui	s10,0x95041
    2378:	00000c93          	li	s9,0
    237c:	2ded0d13          	addi	s10,s10,734 # 950412de <.L53+0x94ff34f2>
    2380:	05000d93          	li	s11,80
    2384:	04900993          	li	s3,73
    2388:	00000a17          	auipc	s4,0x0
    238c:	000a0a13          	mv	s4,s4
    2390:	05200813          	li	a6,82

00002394 <.L34>:
    2394:	02012783          	lw	a5,32(sp)
    2398:	08fc9663          	bne	s9,a5,2424 <.L73>
    239c:	002a9793          	slli	a5,s5,0x2
    23a0:	02f12823          	sw	a5,48(sp)
    23a4:	950417b7          	lui	a5,0x95041
    23a8:	2de78793          	addi	a5,a5,734 # 950412de <.L53+0x94ff34f2>
    23ac:	02842503          	lw	a0,40(s0)
    23b0:	02c42b03          	lw	s6,44(s0)
    23b4:	24f906e3          	beq	s2,a5,2e00 <.L74>
    23b8:	00000097          	auipc	ra,0x0
    23bc:	000080e7          	jalr	ra # 23b8 <.L34+0x24>
    23c0:	00a40d33          	add	s10,s0,a0
    23c4:	000b0513          	mv	a0,s6
    23c8:	00000097          	auipc	ra,0x0
    23cc:	000080e7          	jalr	ra # 23c8 <.L34+0x34>
    23d0:	00a40b33          	add	s6,s0,a0

000023d4 <.L75>:
    23d4:	03012c03          	lw	s8,48(sp)
    23d8:	95041ab7          	lui	s5,0x95041
    23dc:	000b0993          	mv	s3,s6
    23e0:	000b0d93          	mv	s11,s6
    23e4:	000d0a13          	mv	s4,s10
    23e8:	00000c93          	li	s9,0
    23ec:	00012623          	sw	zero,12(sp)
    23f0:	2dea8a93          	addi	s5,s5,734 # 950412de <.L53+0x94ff34f2>

000023f4 <.L76>:
    23f4:	05810b13          	addi	s6,sp,88
    23f8:	235916e3          	bne	s2,s5,2e24 <.L93>
    23fc:	000a2503          	lw	a0,0(s4) # 2388 <.L33+0x30>
    2400:	00000b93          	li	s7,0
    2404:	00a40533          	add	a0,s0,a0
    2408:	2310006f          	j	2e38 <.L82>

0000240c <.L29>:
    240c:	01c12783          	lw	a5,28(sp)
    2410:	ec0784e3          	beqz	a5,22d8 <.L31>
    2414:	01c42783          	lw	a5,28(s0)
    2418:	02042503          	lw	a0,32(s0)
    241c:	02f12023          	sw	a5,32(sp)
    2420:	f39ff06f          	j	2358 <.L33>

00002424 <.L73>:
    2424:	004ba503          	lw	a0,4(s7)
    2428:	000bac03          	lw	s8,0(s7)
    242c:	00a40b33          	add	s6,s0,a0
    2430:	03a90263          	beq	s2,s10,2454 <.L36>
    2434:	00000097          	auipc	ra,0x0
    2438:	000080e7          	jalr	ra # 2434 <.L73+0x10>
    243c:	00a40b33          	add	s6,s0,a0
    2440:	000c0513          	mv	a0,s8
    2444:	00000097          	auipc	ra,0x0
    2448:	000080e7          	jalr	ra # 2444 <.L73+0x20>
    244c:	00050c13          	mv	s8,a0
    2450:	05200813          	li	a6,82

00002454 <.L36>:
    2454:	000c0863          	beqz	s8,2464 <.L316>
    2458:	018b0c33          	add	s8,s6,s8
    245c:	fffc4783          	lbu	a5,-1(s8)
    2460:	00078a63          	beqz	a5,2474 <.L38>

00002464 <.L316>:
    2464:	01012503          	lw	a0,16(sp)
    2468:	00000097          	auipc	ra,0x0
    246c:	000080e7          	jalr	ra # 2468 <.L316+0x4>
    2470:	c9dff06f          	j	210c <.L39>

00002474 <.L38>:
    2474:	000b4703          	lbu	a4,0(s6)
    2478:	75b71063          	bne	a4,s11,2bb8 <.L40>
    247c:	001b4703          	lbu	a4,1(s6)
    2480:	00000793          	li	a5,0
    2484:	03071c63          	bne	a4,a6,24bc <.L41>
    2488:	002b4683          	lbu	a3,2(s6)
    248c:	04900713          	li	a4,73
    2490:	02e69663          	bne	a3,a4,24bc <.L41>
    2494:	003b4703          	lbu	a4,3(s6)
    2498:	06400693          	li	a3,100
    249c:	02d71e63          	bne	a4,a3,24d8 <.L42>
    24a0:	004b4683          	lbu	a3,4(s6)
    24a4:	03800513          	li	a0,56
    24a8:	0ca69463          	bne	a3,a0,2570 <.L43>
    24ac:	005b4703          	lbu	a4,5(s6)
    24b0:	00071663          	bnez	a4,24bc <.L41>
    24b4:	00000797          	auipc	a5,0x0
    24b8:	00078793          	mv	a5,a5

000024bc <.L41>:
    24bc:	01012683          	lw	a3,16(sp)
    24c0:	002c9713          	slli	a4,s9,0x2
    24c4:	008b8b93          	addi	s7,s7,8
    24c8:	00e68733          	add	a4,a3,a4
    24cc:	00f72023          	sw	a5,0(a4)
    24d0:	001c8c93          	addi	s9,s9,1
    24d4:	ec1ff06f          	j	2394 <.L34>

000024d8 <.L42>:
    24d8:	05800693          	li	a3,88
    24dc:	04d70c63          	beq	a4,a3,2534 <.L44>
    24e0:	f9770513          	addi	a0,a4,-105
    24e4:	0ff57513          	zext.b	a0,a0
    24e8:	00f00693          	li	a3,15
    24ec:	fca6e8e3          	bltu	a3,a0,24bc <.L41>
    24f0:	000096b7          	lui	a3,0x9
    24f4:	04168693          	addi	a3,a3,65 # 9041 <.L580+0x9>
    24f8:	00a6d6b3          	srl	a3,a3,a0
    24fc:	0016f693          	andi	a3,a3,1
    2500:	fa068ee3          	beqz	a3,24bc <.L41>
    2504:	004b4683          	lbu	a3,4(s6)
    2508:	03800793          	li	a5,56
    250c:	06f69263          	bne	a3,a5,2570 <.L43>
    2510:	005b4783          	lbu	a5,5(s6)
    2514:	6a079e63          	bnez	a5,2bd0 <.L146>
    2518:	06f00793          	li	a5,111
    251c:	6af70e63          	beq	a4,a5,2bd8 <.L147>
    2520:	02e7ea63          	bltu	a5,a4,2554 <.L46>
    2524:	06900793          	li	a5,105
    2528:	6af70e63          	beq	a4,a5,2be4 <.L148>

0000252c <.L310>:
    252c:	00000097          	auipc	ra,0x0
    2530:	000080e7          	jalr	ra # 252c <.L310>

00002534 <.L44>:
    2534:	004b4683          	lbu	a3,4(s6)
    2538:	03800513          	li	a0,56
    253c:	02a69a63          	bne	a3,a0,2570 <.L43>
    2540:	005b4703          	lbu	a4,5(s6)
    2544:	f6071ce3          	bnez	a4,24bc <.L41>
    2548:	00000797          	auipc	a5,0x0
    254c:	00078793          	mv	a5,a5
    2550:	f6dff06f          	j	24bc <.L41>

00002554 <.L46>:
    2554:	07500793          	li	a5,117
    2558:	68f70c63          	beq	a4,a5,2bf0 <.L149>
    255c:	07800793          	li	a5,120
    2560:	fcf716e3          	bne	a4,a5,252c <.L310>
    2564:	00000797          	auipc	a5,0x0
    2568:	00078793          	mv	a5,a5
    256c:	f51ff06f          	j	24bc <.L41>

00002570 <.L43>:
    2570:	03100513          	li	a0,49
    2574:	06a69863          	bne	a3,a0,25e4 <.L48>
    2578:	005b4503          	lbu	a0,5(s6)
    257c:	03600693          	li	a3,54
    2580:	00000793          	li	a5,0
    2584:	f2d51ce3          	bne	a0,a3,24bc <.L41>
    2588:	006b4683          	lbu	a3,6(s6)
    258c:	f20698e3          	bnez	a3,24bc <.L41>
    2590:	06f00793          	li	a5,111
    2594:	66f70463          	beq	a4,a5,2bfc <.L153>
    2598:	02e7e863          	bltu	a5,a4,25c8 <.L49>
    259c:	06400793          	li	a5,100
    25a0:	66f70463          	beq	a4,a5,2c08 <.L154>
    25a4:	06900693          	li	a3,105
    25a8:	00000797          	auipc	a5,0x0
    25ac:	00078793          	mv	a5,a5
    25b0:	f0d706e3          	beq	a4,a3,24bc <.L41>
    25b4:	05800793          	li	a5,88
    25b8:	f6f71ae3          	bne	a4,a5,252c <.L310>
    25bc:	00000797          	auipc	a5,0x0
    25c0:	00078793          	mv	a5,a5
    25c4:	ef9ff06f          	j	24bc <.L41>

000025c8 <.L49>:
    25c8:	07500793          	li	a5,117
    25cc:	64f70463          	beq	a4,a5,2c14 <.L157>
    25d0:	07800793          	li	a5,120
    25d4:	f4f71ce3          	bne	a4,a5,252c <.L310>
    25d8:	00000797          	auipc	a5,0x0
    25dc:	00078793          	mv	a5,a5
    25e0:	eddff06f          	j	24bc <.L41>

000025e4 <.L48>:
    25e4:	03300793          	li	a5,51
    25e8:	06f69863          	bne	a3,a5,2658 <.L50>
    25ec:	005b4503          	lbu	a0,5(s6)
    25f0:	03200693          	li	a3,50
    25f4:	00000793          	li	a5,0
    25f8:	ecd512e3          	bne	a0,a3,24bc <.L41>
    25fc:	006b4683          	lbu	a3,6(s6)
    2600:	ea069ee3          	bnez	a3,24bc <.L41>
    2604:	06f00793          	li	a5,111
    2608:	60f70c63          	beq	a4,a5,2c20 <.L161>
    260c:	02e7e863          	bltu	a5,a4,263c <.L51>
    2610:	06400793          	li	a5,100
    2614:	60f70c63          	beq	a4,a5,2c2c <.L162>
    2618:	06900693          	li	a3,105
    261c:	00000797          	auipc	a5,0x0
    2620:	00078793          	mv	a5,a5
    2624:	e8d70ce3          	beq	a4,a3,24bc <.L41>
    2628:	05800793          	li	a5,88
    262c:	f0f710e3          	bne	a4,a5,252c <.L310>
    2630:	00000797          	auipc	a5,0x0
    2634:	00078793          	mv	a5,a5
    2638:	e85ff06f          	j	24bc <.L41>

0000263c <.L51>:
    263c:	07500793          	li	a5,117
    2640:	5ef70c63          	beq	a4,a5,2c38 <.L165>
    2644:	07800793          	li	a5,120
    2648:	eef712e3          	bne	a4,a5,252c <.L310>
    264c:	00000797          	auipc	a5,0x0
    2650:	00078793          	mv	a5,a5
    2654:	e69ff06f          	j	24bc <.L41>

00002658 <.L50>:
    2658:	03600793          	li	a5,54
    265c:	06f69863          	bne	a3,a5,26cc <.L52>
    2660:	005b4503          	lbu	a0,5(s6)
    2664:	03400693          	li	a3,52
    2668:	00000793          	li	a5,0
    266c:	e4d518e3          	bne	a0,a3,24bc <.L41>
    2670:	006b4683          	lbu	a3,6(s6)
    2674:	e40694e3          	bnez	a3,24bc <.L41>
    2678:	06f00793          	li	a5,111
    267c:	5cf70463          	beq	a4,a5,2c44 <.L169>
    2680:	02e7e863          	bltu	a5,a4,26b0 <.L53>
    2684:	06400793          	li	a5,100
    2688:	5cf70463          	beq	a4,a5,2c50 <.L170>
    268c:	06900693          	li	a3,105
    2690:	00000797          	auipc	a5,0x0
    2694:	00078793          	mv	a5,a5
    2698:	e2d702e3          	beq	a4,a3,24bc <.L41>
    269c:	05800793          	li	a5,88
    26a0:	e8f716e3          	bne	a4,a5,252c <.L310>
    26a4:	00000797          	auipc	a5,0x0
    26a8:	00078793          	mv	a5,a5
    26ac:	e11ff06f          	j	24bc <.L41>

000026b0 <.L53>:
    26b0:	07500793          	li	a5,117
    26b4:	5af70463          	beq	a4,a5,2c5c <.L173>
    26b8:	07800793          	li	a5,120
    26bc:	e6f718e3          	bne	a4,a5,252c <.L310>
    26c0:	00000797          	auipc	a5,0x0
    26c4:	00078793          	mv	a5,a5
    26c8:	df5ff06f          	j	24bc <.L41>

000026cc <.L52>:
    26cc:	04c00793          	li	a5,76
    26d0:	1ef69c63          	bne	a3,a5,28c8 <.L54>
    26d4:	005b4883          	lbu	a7,5(s6)
    26d8:	04500693          	li	a3,69
    26dc:	00000793          	li	a5,0
    26e0:	dcd89ee3          	bne	a7,a3,24bc <.L41>
    26e4:	006b4883          	lbu	a7,6(s6)
    26e8:	04100693          	li	a3,65
    26ec:	dcd898e3          	bne	a7,a3,24bc <.L41>
    26f0:	007b4883          	lbu	a7,7(s6)
    26f4:	05300693          	li	a3,83
    26f8:	dcd892e3          	bne	a7,a3,24bc <.L41>
    26fc:	008b4883          	lbu	a7,8(s6)
    2700:	05400693          	li	a3,84
    2704:	dad89ce3          	bne	a7,a3,24bc <.L41>
    2708:	009b4783          	lbu	a5,9(s6)
    270c:	03800693          	li	a3,56
    2710:	06d79063          	bne	a5,a3,2770 <.L55>
    2714:	00ab4783          	lbu	a5,10(s6)
    2718:	54079863          	bnez	a5,2c68 <.L179>
    271c:	06f00793          	li	a5,111
    2720:	54f70863          	beq	a4,a5,2c70 <.L180>
    2724:	02e7e863          	bltu	a5,a4,2754 <.L56>
    2728:	06400793          	li	a5,100
    272c:	54f70863          	beq	a4,a5,2c7c <.L181>
    2730:	06900693          	li	a3,105
    2734:	00000797          	auipc	a5,0x0
    2738:	00078793          	mv	a5,a5
    273c:	d8d700e3          	beq	a4,a3,24bc <.L41>
    2740:	05800793          	li	a5,88
    2744:	def714e3          	bne	a4,a5,252c <.L310>
    2748:	00000797          	auipc	a5,0x0
    274c:	00078793          	mv	a5,a5
    2750:	d6dff06f          	j	24bc <.L41>

00002754 <.L56>:
    2754:	07500793          	li	a5,117
    2758:	52f70863          	beq	a4,a5,2c88 <.L184>
    275c:	07800793          	li	a5,120
    2760:	dcf716e3          	bne	a4,a5,252c <.L310>
    2764:	00000797          	auipc	a5,0x0
    2768:	00078793          	mv	a5,a5
    276c:	d51ff06f          	j	24bc <.L41>

00002770 <.L55>:
    2770:	06a79863          	bne	a5,a0,27e0 <.L57>
    2774:	00ab4503          	lbu	a0,10(s6)
    2778:	03600693          	li	a3,54
    277c:	00000793          	li	a5,0
    2780:	d2d51ee3          	bne	a0,a3,24bc <.L41>
    2784:	00bb4683          	lbu	a3,11(s6)
    2788:	d2069ae3          	bnez	a3,24bc <.L41>
    278c:	06f00793          	li	a5,111
    2790:	50f70263          	beq	a4,a5,2c94 <.L188>
    2794:	02e7e863          	bltu	a5,a4,27c4 <.L58>
    2798:	06400793          	li	a5,100
    279c:	50f70263          	beq	a4,a5,2ca0 <.L189>
    27a0:	06900693          	li	a3,105
    27a4:	00000797          	auipc	a5,0x0
    27a8:	00078793          	mv	a5,a5
    27ac:	d0d708e3          	beq	a4,a3,24bc <.L41>
    27b0:	05800793          	li	a5,88
    27b4:	d6f71ce3          	bne	a4,a5,252c <.L310>
    27b8:	00000797          	auipc	a5,0x0
    27bc:	00078793          	mv	a5,a5
    27c0:	cfdff06f          	j	24bc <.L41>

000027c4 <.L58>:
    27c4:	07500793          	li	a5,117
    27c8:	4ef70263          	beq	a4,a5,2cac <.L192>
    27cc:	07800793          	li	a5,120
    27d0:	d4f71ee3          	bne	a4,a5,252c <.L310>
    27d4:	00000797          	auipc	a5,0x0
    27d8:	00078793          	mv	a5,a5
    27dc:	ce1ff06f          	j	24bc <.L41>

000027e0 <.L57>:
    27e0:	03300693          	li	a3,51
    27e4:	06d79863          	bne	a5,a3,2854 <.L59>
    27e8:	00ab4503          	lbu	a0,10(s6)
    27ec:	03200693          	li	a3,50
    27f0:	00000793          	li	a5,0
    27f4:	ccd514e3          	bne	a0,a3,24bc <.L41>
    27f8:	00bb4683          	lbu	a3,11(s6)
    27fc:	cc0690e3          	bnez	a3,24bc <.L41>
    2800:	06f00793          	li	a5,111
    2804:	4af70a63          	beq	a4,a5,2cb8 <.L196>
    2808:	02e7e863          	bltu	a5,a4,2838 <.L60>
    280c:	06400793          	li	a5,100
    2810:	4af70a63          	beq	a4,a5,2cc4 <.L197>
    2814:	06900693          	li	a3,105
    2818:	00000797          	auipc	a5,0x0
    281c:	00078793          	mv	a5,a5
    2820:	c8d70ee3          	beq	a4,a3,24bc <.L41>
    2824:	05800793          	li	a5,88
    2828:	d0f712e3          	bne	a4,a5,252c <.L310>
    282c:	00000797          	auipc	a5,0x0
    2830:	00078793          	mv	a5,a5
    2834:	c89ff06f          	j	24bc <.L41>

00002838 <.L60>:
    2838:	07500793          	li	a5,117
    283c:	48f70a63          	beq	a4,a5,2cd0 <.L200>
    2840:	07800793          	li	a5,120
    2844:	cef714e3          	bne	a4,a5,252c <.L310>
    2848:	00000797          	auipc	a5,0x0
    284c:	00078793          	mv	a5,a5
    2850:	c6dff06f          	j	24bc <.L41>

00002854 <.L59>:
    2854:	03600693          	li	a3,54
    2858:	48d79263          	bne	a5,a3,2cdc <.L202>
    285c:	00ab4503          	lbu	a0,10(s6)
    2860:	03400693          	li	a3,52
    2864:	00000793          	li	a5,0
    2868:	c4d51ae3          	bne	a0,a3,24bc <.L41>
    286c:	00bb4683          	lbu	a3,11(s6)
    2870:	c40696e3          	bnez	a3,24bc <.L41>
    2874:	06f00793          	li	a5,111
    2878:	46f70663          	beq	a4,a5,2ce4 <.L205>
    287c:	02e7e863          	bltu	a5,a4,28ac <.L61>
    2880:	06400793          	li	a5,100
    2884:	46f70663          	beq	a4,a5,2cf0 <.L206>
    2888:	06900693          	li	a3,105
    288c:	00000797          	auipc	a5,0x0
    2890:	00078793          	mv	a5,a5
    2894:	c2d704e3          	beq	a4,a3,24bc <.L41>
    2898:	05800793          	li	a5,88
    289c:	c8f718e3          	bne	a4,a5,252c <.L310>
    28a0:	00000797          	auipc	a5,0x0
    28a4:	00078793          	mv	a5,a5
    28a8:	c15ff06f          	j	24bc <.L41>

000028ac <.L61>:
    28ac:	07500793          	li	a5,117
    28b0:	44f70663          	beq	a4,a5,2cfc <.L209>
    28b4:	07800793          	li	a5,120
    28b8:	c6f71ae3          	bne	a4,a5,252c <.L310>
    28bc:	00000797          	auipc	a5,0x0
    28c0:	00078793          	mv	a5,a5
    28c4:	bf9ff06f          	j	24bc <.L41>

000028c8 <.L54>:
    28c8:	04600793          	li	a5,70
    28cc:	1ef69663          	bne	a3,a5,2ab8 <.L62>
    28d0:	005b4883          	lbu	a7,5(s6)
    28d4:	04100693          	li	a3,65
    28d8:	00000793          	li	a5,0
    28dc:	bed890e3          	bne	a7,a3,24bc <.L41>
    28e0:	006b4883          	lbu	a7,6(s6)
    28e4:	05300693          	li	a3,83
    28e8:	bcd89ae3          	bne	a7,a3,24bc <.L41>
    28ec:	007b4883          	lbu	a7,7(s6)
    28f0:	05400693          	li	a3,84
    28f4:	bcd894e3          	bne	a7,a3,24bc <.L41>
    28f8:	008b4783          	lbu	a5,8(s6)
    28fc:	03800693          	li	a3,56
    2900:	06d79063          	bne	a5,a3,2960 <.L63>
    2904:	009b4783          	lbu	a5,9(s6)
    2908:	40079063          	bnez	a5,2d08 <.L214>
    290c:	06f00793          	li	a5,111
    2910:	40f70063          	beq	a4,a5,2d10 <.L215>
    2914:	02e7e863          	bltu	a5,a4,2944 <.L64>
    2918:	06400793          	li	a5,100
    291c:	40f70063          	beq	a4,a5,2d1c <.L216>
    2920:	06900693          	li	a3,105
    2924:	00000797          	auipc	a5,0x0
    2928:	00078793          	mv	a5,a5
    292c:	b8d708e3          	beq	a4,a3,24bc <.L41>
    2930:	05800793          	li	a5,88
    2934:	bef71ce3          	bne	a4,a5,252c <.L310>
    2938:	00000797          	auipc	a5,0x0
    293c:	00078793          	mv	a5,a5
    2940:	b7dff06f          	j	24bc <.L41>

00002944 <.L64>:
    2944:	07500793          	li	a5,117
    2948:	3ef70063          	beq	a4,a5,2d28 <.L219>
    294c:	07800793          	li	a5,120
    2950:	bcf71ee3          	bne	a4,a5,252c <.L310>
    2954:	00000797          	auipc	a5,0x0
    2958:	00078793          	mv	a5,a5
    295c:	b61ff06f          	j	24bc <.L41>

00002960 <.L63>:
    2960:	06a79863          	bne	a5,a0,29d0 <.L65>
    2964:	009b4503          	lbu	a0,9(s6)
    2968:	03600693          	li	a3,54
    296c:	00000793          	li	a5,0
    2970:	b4d516e3          	bne	a0,a3,24bc <.L41>
    2974:	00ab4683          	lbu	a3,10(s6)
    2978:	b40692e3          	bnez	a3,24bc <.L41>
    297c:	06f00793          	li	a5,111
    2980:	3af70a63          	beq	a4,a5,2d34 <.L223>
    2984:	02e7e863          	bltu	a5,a4,29b4 <.L66>
    2988:	06400793          	li	a5,100
    298c:	3af70a63          	beq	a4,a5,2d40 <.L224>
    2990:	06900693          	li	a3,105
    2994:	00000797          	auipc	a5,0x0
    2998:	00078793          	mv	a5,a5
    299c:	b2d700e3          	beq	a4,a3,24bc <.L41>
    29a0:	05800793          	li	a5,88
    29a4:	b8f714e3          	bne	a4,a5,252c <.L310>
    29a8:	00000797          	auipc	a5,0x0
    29ac:	00078793          	mv	a5,a5
    29b0:	b0dff06f          	j	24bc <.L41>

000029b4 <.L66>:
    29b4:	07500793          	li	a5,117
    29b8:	38f70a63          	beq	a4,a5,2d4c <.L227>
    29bc:	07800793          	li	a5,120
    29c0:	b6f716e3          	bne	a4,a5,252c <.L310>
    29c4:	00000797          	auipc	a5,0x0
    29c8:	00078793          	mv	a5,a5
    29cc:	af1ff06f          	j	24bc <.L41>

000029d0 <.L65>:
    29d0:	03300693          	li	a3,51
    29d4:	06d79863          	bne	a5,a3,2a44 <.L67>
    29d8:	009b4503          	lbu	a0,9(s6)
    29dc:	03200693          	li	a3,50
    29e0:	00000793          	li	a5,0
    29e4:	acd51ce3          	bne	a0,a3,24bc <.L41>
    29e8:	00ab4683          	lbu	a3,10(s6)
    29ec:	ac0698e3          	bnez	a3,24bc <.L41>
    29f0:	06f00793          	li	a5,111
    29f4:	36f70263          	beq	a4,a5,2d58 <.L231>
    29f8:	02e7e863          	bltu	a5,a4,2a28 <.L68>
    29fc:	06400793          	li	a5,100
    2a00:	36f70263          	beq	a4,a5,2d64 <.L232>
    2a04:	06900693          	li	a3,105
    2a08:	00000797          	auipc	a5,0x0
    2a0c:	00078793          	mv	a5,a5
    2a10:	aad706e3          	beq	a4,a3,24bc <.L41>
    2a14:	05800793          	li	a5,88
    2a18:	b0f71ae3          	bne	a4,a5,252c <.L310>
    2a1c:	00000797          	auipc	a5,0x0
    2a20:	00078793          	mv	a5,a5
    2a24:	a99ff06f          	j	24bc <.L41>

00002a28 <.L68>:
    2a28:	07500793          	li	a5,117
    2a2c:	34f70263          	beq	a4,a5,2d70 <.L235>
    2a30:	07800793          	li	a5,120
    2a34:	aef71ce3          	bne	a4,a5,252c <.L310>
    2a38:	00000797          	auipc	a5,0x0
    2a3c:	00078793          	mv	a5,a5
    2a40:	a7dff06f          	j	24bc <.L41>

00002a44 <.L67>:
    2a44:	03600693          	li	a3,54
    2a48:	32d79a63          	bne	a5,a3,2d7c <.L237>
    2a4c:	009b4503          	lbu	a0,9(s6)
    2a50:	03400693          	li	a3,52
    2a54:	00000793          	li	a5,0
    2a58:	a6d512e3          	bne	a0,a3,24bc <.L41>
    2a5c:	00ab4683          	lbu	a3,10(s6)
    2a60:	a4069ee3          	bnez	a3,24bc <.L41>
    2a64:	06f00793          	li	a5,111
    2a68:	30f70e63          	beq	a4,a5,2d84 <.L240>
    2a6c:	02e7e863          	bltu	a5,a4,2a9c <.L69>
    2a70:	06400793          	li	a5,100
    2a74:	30f70e63          	beq	a4,a5,2d90 <.L241>
    2a78:	06900693          	li	a3,105
    2a7c:	00000797          	auipc	a5,0x0
    2a80:	00078793          	mv	a5,a5
    2a84:	a2d70ce3          	beq	a4,a3,24bc <.L41>
    2a88:	05800793          	li	a5,88
    2a8c:	aaf710e3          	bne	a4,a5,252c <.L310>
    2a90:	00000797          	auipc	a5,0x0
    2a94:	00078793          	mv	a5,a5
    2a98:	a25ff06f          	j	24bc <.L41>

00002a9c <.L69>:
    2a9c:	07500793          	li	a5,117
    2aa0:	2ef70e63          	beq	a4,a5,2d9c <.L244>
    2aa4:	07800793          	li	a5,120
    2aa8:	a8f712e3          	bne	a4,a5,252c <.L310>
    2aac:	00000797          	auipc	a5,0x0
    2ab0:	00078793          	mv	a5,a5
    2ab4:	a09ff06f          	j	24bc <.L41>

00002ab8 <.L62>:
    2ab8:	04d00793          	li	a5,77
    2abc:	06f69e63          	bne	a3,a5,2b38 <.L70>
    2ac0:	005b4503          	lbu	a0,5(s6)
    2ac4:	04100693          	li	a3,65
    2ac8:	00000793          	li	a5,0
    2acc:	9ed518e3          	bne	a0,a3,24bc <.L41>
    2ad0:	006b4503          	lbu	a0,6(s6)
    2ad4:	05800693          	li	a3,88
    2ad8:	9ed512e3          	bne	a0,a3,24bc <.L41>
    2adc:	007b4683          	lbu	a3,7(s6)
    2ae0:	9c069ee3          	bnez	a3,24bc <.L41>
    2ae4:	06f00793          	li	a5,111
    2ae8:	2cf70063          	beq	a4,a5,2da8 <.L249>
    2aec:	02e7e863          	bltu	a5,a4,2b1c <.L71>
    2af0:	06400793          	li	a5,100
    2af4:	2cf70063          	beq	a4,a5,2db4 <.L250>
    2af8:	06900693          	li	a3,105
    2afc:	00000797          	auipc	a5,0x0
    2b00:	00078793          	mv	a5,a5
    2b04:	9ad70ce3          	beq	a4,a3,24bc <.L41>
    2b08:	05800793          	li	a5,88
    2b0c:	a2f710e3          	bne	a4,a5,252c <.L310>
    2b10:	00000797          	auipc	a5,0x0
    2b14:	00078793          	mv	a5,a5
    2b18:	9a5ff06f          	j	24bc <.L41>

00002b1c <.L71>:
    2b1c:	07500793          	li	a5,117
    2b20:	2af70063          	beq	a4,a5,2dc0 <.L253>
    2b24:	07800793          	li	a5,120
    2b28:	a0f712e3          	bne	a4,a5,252c <.L310>
    2b2c:	00000797          	auipc	a5,0x0
    2b30:	00078793          	mv	a5,a5
    2b34:	989ff06f          	j	24bc <.L41>

00002b38 <.L70>:
    2b38:	05000793          	li	a5,80
    2b3c:	28f69863          	bne	a3,a5,2dcc <.L255>
    2b40:	005b4503          	lbu	a0,5(s6)
    2b44:	05400693          	li	a3,84
    2b48:	00000793          	li	a5,0
    2b4c:	96d518e3          	bne	a0,a3,24bc <.L41>
    2b50:	006b4503          	lbu	a0,6(s6)
    2b54:	05200693          	li	a3,82
    2b58:	96d512e3          	bne	a0,a3,24bc <.L41>
    2b5c:	007b4783          	lbu	a5,7(s6)
    2b60:	26079a63          	bnez	a5,2dd4 <.L258>
    2b64:	06f00793          	li	a5,111
    2b68:	26f70a63          	beq	a4,a5,2ddc <.L259>
    2b6c:	02e7e863          	bltu	a5,a4,2b9c <.L72>
    2b70:	06400793          	li	a5,100
    2b74:	26f70a63          	beq	a4,a5,2de8 <.L260>
    2b78:	06900693          	li	a3,105
    2b7c:	00000797          	auipc	a5,0x0
    2b80:	00078793          	mv	a5,a5
    2b84:	92d70ce3          	beq	a4,a3,24bc <.L41>
    2b88:	05800793          	li	a5,88
    2b8c:	9af710e3          	bne	a4,a5,252c <.L310>
    2b90:	00000797          	auipc	a5,0x0
    2b94:	00078793          	mv	a5,a5
    2b98:	925ff06f          	j	24bc <.L41>

00002b9c <.L72>:
    2b9c:	07500793          	li	a5,117
    2ba0:	24f70a63          	beq	a4,a5,2df4 <.L263>
    2ba4:	07800793          	li	a5,120
    2ba8:	98f712e3          	bne	a4,a5,252c <.L310>
    2bac:	00000797          	auipc	a5,0x0
    2bb0:	00078793          	mv	a5,a5
    2bb4:	909ff06f          	j	24bc <.L41>

00002bb8 <.L40>:
    2bb8:	00000793          	li	a5,0
    2bbc:	913710e3          	bne	a4,s3,24bc <.L41>
    2bc0:	001b4703          	lbu	a4,1(s6)
    2bc4:	8e071ce3          	bnez	a4,24bc <.L41>
    2bc8:	000a0793          	mv	a5,s4
    2bcc:	8f1ff06f          	j	24bc <.L41>

00002bd0 <.L146>:
    2bd0:	00000793          	li	a5,0
    2bd4:	8e9ff06f          	j	24bc <.L41>

00002bd8 <.L147>:
    2bd8:	00000797          	auipc	a5,0x0
    2bdc:	00078793          	mv	a5,a5
    2be0:	8ddff06f          	j	24bc <.L41>

00002be4 <.L148>:
    2be4:	00000797          	auipc	a5,0x0
    2be8:	00078793          	mv	a5,a5
    2bec:	8d1ff06f          	j	24bc <.L41>

00002bf0 <.L149>:
    2bf0:	00000797          	auipc	a5,0x0
    2bf4:	00078793          	mv	a5,a5
    2bf8:	8c5ff06f          	j	24bc <.L41>

00002bfc <.L153>:
    2bfc:	00000797          	auipc	a5,0x0
    2c00:	00078793          	mv	a5,a5
    2c04:	8b9ff06f          	j	24bc <.L41>

00002c08 <.L154>:
    2c08:	00000797          	auipc	a5,0x0
    2c0c:	00078793          	mv	a5,a5
    2c10:	8adff06f          	j	24bc <.L41>

00002c14 <.L157>:
    2c14:	00000797          	auipc	a5,0x0
    2c18:	00078793          	mv	a5,a5
    2c1c:	8a1ff06f          	j	24bc <.L41>

00002c20 <.L161>:
    2c20:	00000797          	auipc	a5,0x0
    2c24:	00078793          	mv	a5,a5
    2c28:	895ff06f          	j	24bc <.L41>

00002c2c <.L162>:
    2c2c:	00000797          	auipc	a5,0x0
    2c30:	00078793          	mv	a5,a5
    2c34:	889ff06f          	j	24bc <.L41>

00002c38 <.L165>:
    2c38:	00000797          	auipc	a5,0x0
    2c3c:	00078793          	mv	a5,a5
    2c40:	87dff06f          	j	24bc <.L41>

00002c44 <.L169>:
    2c44:	00000797          	auipc	a5,0x0
    2c48:	00078793          	mv	a5,a5
    2c4c:	871ff06f          	j	24bc <.L41>

00002c50 <.L170>:
    2c50:	00000797          	auipc	a5,0x0
    2c54:	00078793          	mv	a5,a5
    2c58:	865ff06f          	j	24bc <.L41>

00002c5c <.L173>:
    2c5c:	00000797          	auipc	a5,0x0
    2c60:	00078793          	mv	a5,a5
    2c64:	859ff06f          	j	24bc <.L41>

00002c68 <.L179>:
    2c68:	00000793          	li	a5,0
    2c6c:	851ff06f          	j	24bc <.L41>

00002c70 <.L180>:
    2c70:	00000797          	auipc	a5,0x0
    2c74:	00078793          	mv	a5,a5
    2c78:	845ff06f          	j	24bc <.L41>

00002c7c <.L181>:
    2c7c:	00000797          	auipc	a5,0x0
    2c80:	00078793          	mv	a5,a5
    2c84:	839ff06f          	j	24bc <.L41>

00002c88 <.L184>:
    2c88:	00000797          	auipc	a5,0x0
    2c8c:	00078793          	mv	a5,a5
    2c90:	82dff06f          	j	24bc <.L41>

00002c94 <.L188>:
    2c94:	00000797          	auipc	a5,0x0
    2c98:	00078793          	mv	a5,a5
    2c9c:	821ff06f          	j	24bc <.L41>

00002ca0 <.L189>:
    2ca0:	00000797          	auipc	a5,0x0
    2ca4:	00078793          	mv	a5,a5
    2ca8:	815ff06f          	j	24bc <.L41>

00002cac <.L192>:
    2cac:	00000797          	auipc	a5,0x0
    2cb0:	00078793          	mv	a5,a5
    2cb4:	809ff06f          	j	24bc <.L41>

00002cb8 <.L196>:
    2cb8:	00000797          	auipc	a5,0x0
    2cbc:	00078793          	mv	a5,a5
    2cc0:	ffcff06f          	j	24bc <.L41>

00002cc4 <.L197>:
    2cc4:	00000797          	auipc	a5,0x0
    2cc8:	00078793          	mv	a5,a5
    2ccc:	ff0ff06f          	j	24bc <.L41>

00002cd0 <.L200>:
    2cd0:	00000797          	auipc	a5,0x0
    2cd4:	00078793          	mv	a5,a5
    2cd8:	fe4ff06f          	j	24bc <.L41>

00002cdc <.L202>:
    2cdc:	00000793          	li	a5,0
    2ce0:	fdcff06f          	j	24bc <.L41>

00002ce4 <.L205>:
    2ce4:	00000797          	auipc	a5,0x0
    2ce8:	00078793          	mv	a5,a5
    2cec:	fd0ff06f          	j	24bc <.L41>

00002cf0 <.L206>:
    2cf0:	00000797          	auipc	a5,0x0
    2cf4:	00078793          	mv	a5,a5
    2cf8:	fc4ff06f          	j	24bc <.L41>

00002cfc <.L209>:
    2cfc:	00000797          	auipc	a5,0x0
    2d00:	00078793          	mv	a5,a5
    2d04:	fb8ff06f          	j	24bc <.L41>

00002d08 <.L214>:
    2d08:	00000793          	li	a5,0
    2d0c:	fb0ff06f          	j	24bc <.L41>

00002d10 <.L215>:
    2d10:	00000797          	auipc	a5,0x0
    2d14:	00078793          	mv	a5,a5
    2d18:	fa4ff06f          	j	24bc <.L41>

00002d1c <.L216>:
    2d1c:	00000797          	auipc	a5,0x0
    2d20:	00078793          	mv	a5,a5
    2d24:	f98ff06f          	j	24bc <.L41>

00002d28 <.L219>:
    2d28:	00000797          	auipc	a5,0x0
    2d2c:	00078793          	mv	a5,a5
    2d30:	f8cff06f          	j	24bc <.L41>

00002d34 <.L223>:
    2d34:	00000797          	auipc	a5,0x0
    2d38:	00078793          	mv	a5,a5
    2d3c:	f80ff06f          	j	24bc <.L41>

00002d40 <.L224>:
    2d40:	00000797          	auipc	a5,0x0
    2d44:	00078793          	mv	a5,a5
    2d48:	f74ff06f          	j	24bc <.L41>

00002d4c <.L227>:
    2d4c:	00000797          	auipc	a5,0x0
    2d50:	00078793          	mv	a5,a5
    2d54:	f68ff06f          	j	24bc <.L41>

00002d58 <.L231>:
    2d58:	00000797          	auipc	a5,0x0
    2d5c:	00078793          	mv	a5,a5
    2d60:	f5cff06f          	j	24bc <.L41>

00002d64 <.L232>:
    2d64:	00000797          	auipc	a5,0x0
    2d68:	00078793          	mv	a5,a5
    2d6c:	f50ff06f          	j	24bc <.L41>

00002d70 <.L235>:
    2d70:	00000797          	auipc	a5,0x0
    2d74:	00078793          	mv	a5,a5
    2d78:	f44ff06f          	j	24bc <.L41>

00002d7c <.L237>:
    2d7c:	00000793          	li	a5,0
    2d80:	f3cff06f          	j	24bc <.L41>

00002d84 <.L240>:
    2d84:	00000797          	auipc	a5,0x0
    2d88:	00078793          	mv	a5,a5
    2d8c:	f30ff06f          	j	24bc <.L41>

00002d90 <.L241>:
    2d90:	00000797          	auipc	a5,0x0
    2d94:	00078793          	mv	a5,a5
    2d98:	f24ff06f          	j	24bc <.L41>

00002d9c <.L244>:
    2d9c:	00000797          	auipc	a5,0x0
    2da0:	00078793          	mv	a5,a5
    2da4:	f18ff06f          	j	24bc <.L41>

00002da8 <.L249>:
    2da8:	00000797          	auipc	a5,0x0
    2dac:	00078793          	mv	a5,a5
    2db0:	f0cff06f          	j	24bc <.L41>

00002db4 <.L250>:
    2db4:	00000797          	auipc	a5,0x0
    2db8:	00078793          	mv	a5,a5
    2dbc:	f00ff06f          	j	24bc <.L41>

00002dc0 <.L253>:
    2dc0:	00000797          	auipc	a5,0x0
    2dc4:	00078793          	mv	a5,a5
    2dc8:	ef4ff06f          	j	24bc <.L41>

00002dcc <.L255>:
    2dcc:	00000793          	li	a5,0
    2dd0:	eecff06f          	j	24bc <.L41>

00002dd4 <.L258>:
    2dd4:	00000793          	li	a5,0
    2dd8:	ee4ff06f          	j	24bc <.L41>

00002ddc <.L259>:
    2ddc:	00000797          	auipc	a5,0x0
    2de0:	00078793          	mv	a5,a5
    2de4:	ed8ff06f          	j	24bc <.L41>

00002de8 <.L260>:
    2de8:	00000797          	auipc	a5,0x0
    2dec:	00078793          	mv	a5,a5
    2df0:	eccff06f          	j	24bc <.L41>

00002df4 <.L263>:
    2df4:	00000797          	auipc	a5,0x0
    2df8:	00078793          	mv	a5,a5
    2dfc:	ec0ff06f          	j	24bc <.L41>

00002e00 <.L74>:
    2e00:	00a40d33          	add	s10,s0,a0
    2e04:	01640b33          	add	s6,s0,s6
    2e08:	dccff06f          	j	23d4 <.L75>

00002e0c <.L90>:
    2e0c:	004b0b13          	addi	s6,s6,4
    2e10:	0d591863          	bne	s2,s5,2ee0 <.L77>
    2e14:	000da503          	lw	a0,0(s11)
    2e18:	00100b93          	li	s7,1
    2e1c:	00a40533          	add	a0,s0,a0
    2e20:	0180006f          	j	2e38 <.L82>

00002e24 <.L93>:
    2e24:	000a2503          	lw	a0,0(s4)
    2e28:	00000b93          	li	s7,0

00002e2c <.L79>:
    2e2c:	00000097          	auipc	ra,0x0
    2e30:	000080e7          	jalr	ra # 2e2c <.L79>
    2e34:	00a40533          	add	a0,s0,a0

00002e38 <.L82>:
    2e38:	00852783          	lw	a5,8(a0)
    2e3c:	fff00713          	li	a4,-1
    2e40:	0ae78663          	beq	a5,a4,2eec <.L81>
    2e44:	00450793          	addi	a5,a0,4
    2e48:	00000613          	li	a2,0

00002e4c <.L87>:
    2e4c:	0007a503          	lw	a0,0(a5) # 2df4 <.L263>
    2e50:	02c12223          	sw	a2,36(sp)
    2e54:	0047a703          	lw	a4,4(a5)
    2e58:	00a606b3          	add	a3,a2,a0
    2e5c:	03590e63          	beq	s2,s5,2e98 <.L84>
    2e60:	02f12423          	sw	a5,40(sp)
    2e64:	02e12c23          	sw	a4,56(sp)
    2e68:	00000097          	auipc	ra,0x0
    2e6c:	000080e7          	jalr	ra # 2e68 <.L87+0x1c>
    2e70:	02412603          	lw	a2,36(sp)
    2e74:	03812703          	lw	a4,56(sp)
    2e78:	00a606b3          	add	a3,a2,a0
    2e7c:	00070513          	mv	a0,a4
    2e80:	02d12223          	sw	a3,36(sp)
    2e84:	00000097          	auipc	ra,0x0
    2e88:	000080e7          	jalr	ra # 2e84 <.L87+0x38>
    2e8c:	02812783          	lw	a5,40(sp)
    2e90:	02412683          	lw	a3,36(sp)
    2e94:	00050713          	mv	a4,a0

00002e98 <.L84>:
    2e98:	fff00613          	li	a2,-1
    2e9c:	06c70e63          	beq	a4,a2,2f18 <.L267>
    2ea0:	02012603          	lw	a2,32(sp)
    2ea4:	dcc77063          	bgeu	a4,a2,2464 <.L316>
    2ea8:	02f12423          	sw	a5,40(sp)
    2eac:	01012783          	lw	a5,16(sp)
    2eb0:	00271713          	slli	a4,a4,0x2
    2eb4:	00e78733          	add	a4,a5,a4
    2eb8:	00072503          	lw	a0,0(a4)
    2ebc:	0e050663          	beqz	a0,2fa8 <.L268>
    2ec0:	02d12223          	sw	a3,36(sp)
    2ec4:	00000097          	auipc	ra,0x0
    2ec8:	000080e7          	jalr	ra # 2ec4 <.L84+0x2c>
    2ecc:	02412683          	lw	a3,36(sp)
    2ed0:	02812783          	lw	a5,40(sp)
    2ed4:	00d50633          	add	a2,a0,a3
    2ed8:	00878793          	addi	a5,a5,8
    2edc:	f71ff06f          	j	2e4c <.L87>

00002ee0 <.L77>:
    2ee0:	000da503          	lw	a0,0(s11)
    2ee4:	00100b93          	li	s7,1
    2ee8:	f45ff06f          	j	2e2c <.L79>

00002eec <.L81>:
    2eec:	000b2023          	sw	zero,0(s6)

00002ef0 <.L88>:
    2ef0:	00100793          	li	a5,1
    2ef4:	f0fb9ce3          	bne	s7,a5,2e0c <.L90>
    2ef8:	00c12783          	lw	a5,12(sp)
    2efc:	05c12703          	lw	a4,92(sp)
    2f00:	00178793          	addi	a5,a5,1
    2f04:	00f12623          	sw	a5,12(sp)
    2f08:	05812783          	lw	a5,88(sp)
    2f0c:	00e787b3          	add	a5,a5,a4
    2f10:	00fc0c33          	add	s8,s8,a5
    2f14:	0100006f          	j	2f24 <.L89>

00002f18 <.L267>:
    2f18:	00100793          	li	a5,1

00002f1c <.L85>:
    2f1c:	00db2023          	sw	a3,0(s6)
    2f20:	fc0798e3          	bnez	a5,2ef0 <.L88>

00002f24 <.L89>:
    2f24:	01c12783          	lw	a5,28(sp)
    2f28:	001c8c93          	addi	s9,s9,1
    2f2c:	004a0a13          	addi	s4,s4,4
    2f30:	004d8d93          	addi	s11,s11,4
    2f34:	ccfc9063          	bne	s9,a5,23f4 <.L76>
    2f38:	00c12783          	lw	a5,12(sp)
    2f3c:	42078263          	beqz	a5,3360 <.L95>
    2f40:	00479513          	slli	a0,a5,0x4
    2f44:	01850533          	add	a0,a0,s8
    2f48:	00000097          	auipc	ra,0x0
    2f4c:	000080e7          	jalr	ra # 2f48 <.L89+0x24>
    2f50:	00050b93          	mv	s7,a0
    2f54:	9a050c63          	beqz	a0,210c <.L39>
    2f58:	00c12783          	lw	a5,12(sp)
    2f5c:	00a4a823          	sw	a0,16(s1)
    2f60:	02012023          	sw	zero,32(sp)
    2f64:	00379793          	slli	a5,a5,0x3
    2f68:	00f50733          	add	a4,a0,a5
    2f6c:	00f70db3          	add	s11,a4,a5
    2f70:	03012783          	lw	a5,48(sp)
    2f74:	02e12c23          	sw	a4,56(sp)
    2f78:	02012423          	sw	zero,40(sp)
    2f7c:	00fd8c33          	add	s8,s11,a5
    2f80:	950417b7          	lui	a5,0x95041
    2f84:	2de78b13          	addi	s6,a5,734 # 950412de <.L53+0x94ff34f2>
    2f88:	fff00a93          	li	s5,-1

00002f8c <.L96>:
    2f8c:	03691263          	bne	s2,s6,2fb0 <.L121>
    2f90:	000d2503          	lw	a0,0(s10)
    2f94:	00a40533          	add	a0,s0,a0
    2f98:	00852783          	lw	a5,8(a0)
    2f9c:	07578c63          	beq	a5,s5,3014 <.L102>
    2fa0:	00000c93          	li	s9,0
    2fa4:	0280006f          	j	2fcc <.L100>

00002fa8 <.L268>:
    2fa8:	00000793          	li	a5,0
    2fac:	f71ff06f          	j	2f1c <.L85>

00002fb0 <.L121>:
    2fb0:	000d2503          	lw	a0,0(s10)
    2fb4:	00000c93          	li	s9,0

00002fb8 <.L99>:
    2fb8:	00000097          	auipc	ra,0x0
    2fbc:	000080e7          	jalr	ra # 2fb8 <.L99>
    2fc0:	00a40533          	add	a0,s0,a0
    2fc4:	00852783          	lw	a5,8(a0)
    2fc8:	05578263          	beq	a5,s5,300c <.L101>

00002fcc <.L100>:
    2fcc:	00450a13          	addi	s4,a0,4

00002fd0 <.L106>:
    2fd0:	004a2503          	lw	a0,4(s4)
    2fd4:	01690663          	beq	s2,s6,2fe0 <.L104>
    2fd8:	00000097          	auipc	ra,0x0
    2fdc:	000080e7          	jalr	ra # 2fd8 <.L106+0x8>

00002fe0 <.L104>:
    2fe0:	03550663          	beq	a0,s5,300c <.L101>
    2fe4:	01012783          	lw	a5,16(sp)
    2fe8:	00251513          	slli	a0,a0,0x2
    2fec:	00a78533          	add	a0,a5,a0
    2ff0:	00052783          	lw	a5,0(a0)
    2ff4:	20078c63          	beqz	a5,320c <.L105>
    2ff8:	008a0a13          	addi	s4,s4,8
    2ffc:	fd5ff06f          	j	2fd0 <.L106>

00003000 <.L97>:
    3000:	0009a503          	lw	a0,0(s3)
    3004:	00100c93          	li	s9,1
    3008:	fb1ff06f          	j	2fb8 <.L99>

0000300c <.L101>:
    300c:	00100793          	li	a5,1
    3010:	00fc8e63          	beq	s9,a5,302c <.L103>

00003014 <.L102>:
    3014:	ff6916e3          	bne	s2,s6,3000 <.L97>
    3018:	0009a503          	lw	a0,0(s3)
    301c:	00100c93          	li	s9,1
    3020:	00a40533          	add	a0,s0,a0
    3024:	00852783          	lw	a5,8(a0)
    3028:	fb5792e3          	bne	a5,s5,2fcc <.L100>

0000302c <.L103>:
    302c:	02012783          	lw	a5,32(sp)
    3030:	00379793          	slli	a5,a5,0x3
    3034:	02f12e23          	sw	a5,60(sp)
    3038:	00fb87b3          	add	a5,s7,a5
    303c:	07691263          	bne	s2,s6,30a0 <.L137>
    3040:	000d2c83          	lw	s9,0(s10)
    3044:	02012223          	sw	zero,36(sp)
    3048:	01940cb3          	add	s9,s0,s9
    304c:	000caa03          	lw	s4,0(s9)
    3050:	01440a33          	add	s4,s0,s4

00003054 <.L108>:
    3054:	008ca703          	lw	a4,8(s9)
    3058:	07571e63          	bne	a4,s5,30d4 <.L110>
    305c:	004ca503          	lw	a0,4(s9)

00003060 <.L111>:
    3060:	00a7a023          	sw	a0,0(a5)
    3064:	0147a223          	sw	s4,4(a5)

00003068 <.L112>:
    3068:	02412783          	lw	a5,36(sp)
    306c:	00100713          	li	a4,1
    3070:	18e78863          	beq	a5,a4,3200 <.L117>
    3074:	03812783          	lw	a5,56(sp)
    3078:	03c12703          	lw	a4,60(sp)
    307c:	00e787b3          	add	a5,a5,a4
    3080:	13691263          	bne	s2,s6,31a4 <.L118>
    3084:	0009ac83          	lw	s9,0(s3)
    3088:	00100713          	li	a4,1
    308c:	02e12223          	sw	a4,36(sp)
    3090:	01940cb3          	add	s9,s0,s9
    3094:	000caa03          	lw	s4,0(s9)
    3098:	01440a33          	add	s4,s0,s4
    309c:	fb9ff06f          	j	3054 <.L108>

000030a0 <.L137>:
    30a0:	000d2503          	lw	a0,0(s10)
    30a4:	02f12223          	sw	a5,36(sp)
    30a8:	00000097          	auipc	ra,0x0
    30ac:	000080e7          	jalr	ra # 30a8 <.L137+0x8>
    30b0:	00a40cb3          	add	s9,s0,a0
    30b4:	000ca503          	lw	a0,0(s9)
    30b8:	00000097          	auipc	ra,0x0
    30bc:	000080e7          	jalr	ra # 30b8 <.L137+0x18>
    30c0:	02412783          	lw	a5,36(sp)
    30c4:	00a40a33          	add	s4,s0,a0
    30c8:	02012223          	sw	zero,36(sp)

000030cc <.L107>:
    30cc:	008ca703          	lw	a4,8(s9)
    30d0:	11570463          	beq	a4,s5,31d8 <.L109>

000030d4 <.L110>:
    30d4:	0187a223          	sw	s8,4(a5)
    30d8:	004c8c93          	addi	s9,s9,4

000030dc <.L116>:
    30dc:	000ca603          	lw	a2,0(s9)
    30e0:	004ca703          	lw	a4,4(s9)
    30e4:	03690c63          	beq	s2,s6,311c <.L113>
    30e8:	00060513          	mv	a0,a2
    30ec:	04f12623          	sw	a5,76(sp)
    30f0:	04e12423          	sw	a4,72(sp)
    30f4:	00000097          	auipc	ra,0x0
    30f8:	000080e7          	jalr	ra # 30f4 <.L116+0x18>
    30fc:	04812703          	lw	a4,72(sp)
    3100:	04a12223          	sw	a0,68(sp)
    3104:	00070513          	mv	a0,a4
    3108:	00000097          	auipc	ra,0x0
    310c:	000080e7          	jalr	ra # 3108 <.L116+0x2c>
    3110:	04c12783          	lw	a5,76(sp)
    3114:	04412603          	lw	a2,68(sp)
    3118:	00050713          	mv	a4,a0

0000311c <.L113>:
    311c:	02060a63          	beqz	a2,3150 <.L114>
    3120:	000a0593          	mv	a1,s4
    3124:	000c0513          	mv	a0,s8
    3128:	04f12623          	sw	a5,76(sp)
    312c:	04e12423          	sw	a4,72(sp)
    3130:	04c12223          	sw	a2,68(sp)
    3134:	00000097          	auipc	ra,0x0
    3138:	000080e7          	jalr	ra # 3134 <.L113+0x18>
    313c:	04412603          	lw	a2,68(sp)
    3140:	04c12783          	lw	a5,76(sp)
    3144:	04812703          	lw	a4,72(sp)
    3148:	00cc0c33          	add	s8,s8,a2
    314c:	00ca0a33          	add	s4,s4,a2

00003150 <.L114>:
    3150:	0b570063          	beq	a4,s5,31f0 <.L115>
    3154:	04f12623          	sw	a5,76(sp)
    3158:	01012783          	lw	a5,16(sp)
    315c:	00271713          	slli	a4,a4,0x2
    3160:	008c8c93          	addi	s9,s9,8
    3164:	00e78733          	add	a4,a5,a4
    3168:	00072583          	lw	a1,0(a4)
    316c:	00058513          	mv	a0,a1
    3170:	04b12423          	sw	a1,72(sp)
    3174:	00000097          	auipc	ra,0x0
    3178:	000080e7          	jalr	ra # 3174 <.L114+0x24>
    317c:	04812583          	lw	a1,72(sp)
    3180:	00050613          	mv	a2,a0
    3184:	04a12223          	sw	a0,68(sp)
    3188:	000c0513          	mv	a0,s8
    318c:	00000097          	auipc	ra,0x0
    3190:	000080e7          	jalr	ra # 318c <.L114+0x3c>
    3194:	04412603          	lw	a2,68(sp)
    3198:	04c12783          	lw	a5,76(sp)
    319c:	00cc0c33          	add	s8,s8,a2
    31a0:	f3dff06f          	j	30dc <.L116>

000031a4 <.L118>:
    31a4:	0009a503          	lw	a0,0(s3)
    31a8:	02f12223          	sw	a5,36(sp)
    31ac:	00000097          	auipc	ra,0x0
    31b0:	000080e7          	jalr	ra # 31ac <.L118+0x8>
    31b4:	00a40cb3          	add	s9,s0,a0
    31b8:	000ca503          	lw	a0,0(s9)
    31bc:	00000097          	auipc	ra,0x0
    31c0:	000080e7          	jalr	ra # 31bc <.L118+0x18>
    31c4:	00100713          	li	a4,1
    31c8:	02412783          	lw	a5,36(sp)
    31cc:	00a40a33          	add	s4,s0,a0
    31d0:	02e12223          	sw	a4,36(sp)
    31d4:	ef9ff06f          	j	30cc <.L107>

000031d8 <.L109>:
    31d8:	004ca503          	lw	a0,4(s9)
    31dc:	04f12223          	sw	a5,68(sp)
    31e0:	00000097          	auipc	ra,0x0
    31e4:	000080e7          	jalr	ra # 31e0 <.L109+0x8>
    31e8:	04412783          	lw	a5,68(sp)
    31ec:	e75ff06f          	j	3060 <.L111>

000031f0 <.L115>:
    31f0:	0047a703          	lw	a4,4(a5)
    31f4:	40ec0733          	sub	a4,s8,a4
    31f8:	00e7a023          	sw	a4,0(a5)
    31fc:	e6dff06f          	j	3068 <.L112>

00003200 <.L117>:
    3200:	02012783          	lw	a5,32(sp)
    3204:	00178793          	addi	a5,a5,1
    3208:	02f12023          	sw	a5,32(sp)

0000320c <.L105>:
    320c:	02812783          	lw	a5,40(sp)
    3210:	01c12703          	lw	a4,28(sp)
    3214:	004d0d13          	addi	s10,s10,4
    3218:	00178793          	addi	a5,a5,1
    321c:	02f12423          	sw	a5,40(sp)
    3220:	00498993          	addi	s3,s3,4
    3224:	d6e794e3          	bne	a5,a4,2f8c <.L96>
    3228:	00c12783          	lw	a5,12(sp)
    322c:	02012703          	lw	a4,32(sp)
    3230:	00000a13          	li	s4,0
    3234:	aee79c63          	bne	a5,a4,252c <.L310>
    3238:	95041ab7          	lui	s5,0x95041
    323c:	2dea8a93          	addi	s5,s5,734 # 950412de <.L53+0x94ff34f2>

00003240 <.L123>:
    3240:	03412783          	lw	a5,52(sp)
    3244:	014787b3          	add	a5,a5,s4
    3248:	0007a503          	lw	a0,0(a5)
    324c:	01590663          	beq	s2,s5,3258 <.L124>
    3250:	00000097          	auipc	ra,0x0
    3254:	000080e7          	jalr	ra # 3250 <.L123+0x10>

00003258 <.L124>:
    3258:	014d87b3          	add	a5,s11,s4
    325c:	00a7a023          	sw	a0,0(a5)
    3260:	03012783          	lw	a5,48(sp)
    3264:	004a0a13          	addi	s4,s4,4
    3268:	fd479ce3          	bne	a5,s4,3240 <.L123>
    326c:	004b8a13          	addi	s4,s7,4
    3270:	00000913          	li	s2,0

00003274 <.L127>:
    3274:	000a2503          	lw	a0,0(s4)
    3278:	00000097          	auipc	ra,0x0
    327c:	000080e7          	jalr	ra # 3278 <.L127+0x4>
    3280:	02c4a703          	lw	a4,44(s1)
    3284:	ffe70693          	addi	a3,a4,-2
    3288:	02e577b3          	remu	a5,a0,a4
    328c:	02d57533          	remu	a0,a0,a3
    3290:	00150513          	addi	a0,a0,1
    3294:	40a70633          	sub	a2,a4,a0
    3298:	40e50733          	sub	a4,a0,a4

0000329c <.L125>:
    329c:	00279693          	slli	a3,a5,0x2
    32a0:	00dd86b3          	add	a3,s11,a3
    32a4:	0006a583          	lw	a1,0(a3)
    32a8:	0a059263          	bnez	a1,334c <.L126>
    32ac:	0144a783          	lw	a5,20(s1)
    32b0:	008a0a13          	addi	s4,s4,8
    32b4:	00178793          	addi	a5,a5,1
    32b8:	012787b3          	add	a5,a5,s2
    32bc:	00f6a023          	sw	a5,0(a3)
    32c0:	00c12783          	lw	a5,12(sp)
    32c4:	00190913          	addi	s2,s2,1
    32c8:	fb2796e3          	bne	a5,s2,3274 <.L127>
    32cc:	00c12783          	lw	a5,12(sp)
    32d0:	0374a223          	sw	s7,36(s1)
    32d4:	03b4a823          	sw	s11,48(s1)
    32d8:	02f4a023          	sw	a5,32(s1)
    32dc:	03812783          	lw	a5,56(sp)
    32e0:	0204aa23          	sw	zero,52(s1)
    32e4:	02f4a423          	sw	a5,40(s1)

000032e8 <.L131>:
    32e8:	01012503          	lw	a0,16(sp)
    32ec:	00000097          	auipc	ra,0x0
    32f0:	000080e7          	jalr	ra # 32ec <.L131+0x4>

000032f4 <.L26>:
    32f4:	00000593          	li	a1,0
    32f8:	0204ac23          	sw	zero,56(s1)
    32fc:	0204ae23          	sw	zero,60(s1)
    3300:	04048513          	addi	a0,s1,64
    3304:	00000097          	auipc	ra,0x0
    3308:	000080e7          	jalr	ra # 3304 <.L26+0x10>
    330c:	04012583          	lw	a1,64(sp)
    3310:	01412503          	lw	a0,20(sp)
    3314:	05810713          	addi	a4,sp,88
    3318:	00000693          	li	a3,0
    331c:	00000617          	auipc	a2,0x0
    3320:	00060613          	mv	a2,a2
    3324:	00000097          	auipc	ra,0x0
    3328:	000080e7          	jalr	ra # 3324 <.L26+0x30>
    332c:	fff00793          	li	a5,-1
    3330:	00f51463          	bne	a0,a5,3338 <.L26+0x44>
    3334:	dd9fe06f          	j	210c <.L39>
    3338:	07448613          	addi	a2,s1,116
    333c:	07048593          	addi	a1,s1,112
    3340:	00000097          	auipc	ra,0x0
    3344:	000080e7          	jalr	ra # 3340 <.L26+0x4c>
    3348:	e61fe06f          	j	21a8 <.L6>

0000334c <.L126>:
    334c:	00c7e663          	bltu	a5,a2,3358 <.L129>
    3350:	00e787b3          	add	a5,a5,a4
    3354:	f49ff06f          	j	329c <.L125>

00003358 <.L129>:
    3358:	00a787b3          	add	a5,a5,a0
    335c:	f41ff06f          	j	329c <.L125>

00003360 <.L95>:
    3360:	0204a023          	sw	zero,32(s1)
    3364:	0204a223          	sw	zero,36(s1)
    3368:	0204a423          	sw	zero,40(s1)
    336c:	f7dff06f          	j	32e8 <.L131>

00003370 <.L132>:
    3370:	00040513          	mv	a0,s0
    3374:	00000097          	auipc	ra,0x0
    3378:	000080e7          	jalr	ra # 3374 <.L132+0x4>
    337c:	db9fe06f          	j	2134 <.L133>

00003380 <alias_compare>:
    3380:	0005a583          	lw	a1,0(a1) # 1bd8 <.L222+0xd0>
    3384:	00052503          	lw	a0,0(a0)
    3388:	00000617          	auipc	a2,0x0
    338c:	00060613          	mv	a2,a2
    3390:	00000317          	auipc	t1,0x0
    3394:	00030067          	jr	t1 # 3390 <alias_compare+0x10>

00003398 <read_alias_file>:
    3398:	e1010113          	addi	sp,sp,-496
    339c:	02558793          	addi	a5,a1,37
    33a0:	1e112623          	sw	ra,492(sp)
    33a4:	1e812423          	sw	s0,488(sp)
    33a8:	1e912223          	sw	s1,484(sp)
    33ac:	1f010413          	addi	s0,sp,496
    33b0:	1f212023          	sw	s2,480(sp)
    33b4:	1d412c23          	sw	s4,472(sp)
    33b8:	ff07f793          	andi	a5,a5,-16
    33bc:	1d312e23          	sw	s3,476(sp)
    33c0:	1d512a23          	sw	s5,468(sp)
    33c4:	1d612823          	sw	s6,464(sp)
    33c8:	1d712623          	sw	s7,460(sp)
    33cc:	1d812423          	sw	s8,456(sp)
    33d0:	1d912223          	sw	s9,452(sp)
    33d4:	1da12023          	sw	s10,448(sp)
    33d8:	1bb12e23          	sw	s11,444(sp)
    33dc:	40f10133          	sub	sp,sp,a5
    33e0:	00f10913          	addi	s2,sp,15
    33e4:	ff097913          	andi	s2,s2,-16
    33e8:	00058613          	mv	a2,a1
    33ec:	00058493          	mv	s1,a1
    33f0:	00050593          	mv	a1,a0
    33f4:	00090513          	mv	a0,s2
    33f8:	00000097          	auipc	ra,0x0
    33fc:	000080e7          	jalr	ra # 33f8 <read_alias_file+0x60>
    3400:	00e00613          	li	a2,14
    3404:	00000597          	auipc	a1,0x0
    3408:	00058593          	mv	a1,a1
    340c:	00950533          	add	a0,a0,s1
    3410:	00000097          	auipc	ra,0x0
    3414:	000080e7          	jalr	ra # 3410 <read_alias_file+0x78>
    3418:	00000597          	auipc	a1,0x0
    341c:	00058593          	mv	a1,a1
    3420:	00090513          	mv	a0,s2
    3424:	00000097          	auipc	ra,0x0
    3428:	000080e7          	jalr	ra # 3424 <read_alias_file+0x8c>
    342c:	00000a13          	li	s4,0
    3430:	08050263          	beqz	a0,34b4 <.L2>
    3434:	00052783          	lw	a5,0(a0)
    3438:	ffff8737          	lui	a4,0xffff8
    343c:	fff70713          	addi	a4,a4,-1 # ffff7fff <.L53+0xfffaa213>
    3440:	00e7f7b3          	and	a5,a5,a4
    3444:	00008737          	lui	a4,0x8
    3448:	00e7e7b3          	or	a5,a5,a4
    344c:	00f52023          	sw	a5,0(a0)
    3450:	e3040793          	addi	a5,s0,-464
    3454:	e2f42623          	sw	a5,-468(s0)
    3458:	00000797          	auipc	a5,0x0
    345c:	0007a783          	lw	a5,0(a5) # 3458 <read_alias_file+0xc0>
    3460:	00050493          	mv	s1,a0
    3464:	00000a13          	li	s4,0
    3468:	e2f42223          	sw	a5,-476(s0)
    346c:	00002bb7          	lui	s7,0x2

00003470 <.L4>:
    3470:	00048513          	mv	a0,s1
    3474:	00000097          	auipc	ra,0x0
    3478:	000080e7          	jalr	ra # 3474 <.L4+0x4>
    347c:	06050e63          	beqz	a0,34f8 <.L32>

00003480 <.L31>:
    3480:	00048513          	mv	a0,s1
    3484:	00000097          	auipc	ra,0x0
    3488:	000080e7          	jalr	ra # 3484 <.L31+0x4>
    348c:	020a0463          	beqz	s4,34b4 <.L2>
    3490:	00000697          	auipc	a3,0x0
    3494:	00068693          	mv	a3,a3
    3498:	00800613          	li	a2,8
    349c:	00000597          	auipc	a1,0x0
    34a0:	0005a583          	lw	a1,0(a1) # 349c <.L31+0x1c>
    34a4:	00000517          	auipc	a0,0x0
    34a8:	00052503          	lw	a0,0(a0) # 34a4 <.L31+0x24>
    34ac:	00000097          	auipc	ra,0x0
    34b0:	000080e7          	jalr	ra # 34ac <.L31+0x2c>

000034b4 <.L2>:
    34b4:	e1040113          	addi	sp,s0,-496
    34b8:	1ec12083          	lw	ra,492(sp)
    34bc:	000a0513          	mv	a0,s4
    34c0:	1e812403          	lw	s0,488(sp)
    34c4:	1e412483          	lw	s1,484(sp)
    34c8:	1e012903          	lw	s2,480(sp)
    34cc:	1dc12983          	lw	s3,476(sp)
    34d0:	1d812a03          	lw	s4,472(sp)
    34d4:	1d412a83          	lw	s5,468(sp)
    34d8:	1d012b03          	lw	s6,464(sp)
    34dc:	1cc12b83          	lw	s7,460(sp)
    34e0:	1c812c03          	lw	s8,456(sp)
    34e4:	1c412c83          	lw	s9,452(sp)
    34e8:	1c012d03          	lw	s10,448(sp)
    34ec:	1bc12d83          	lw	s11,444(sp)
    34f0:	1f010113          	addi	sp,sp,496
    34f4:	00008067          	ret

000034f8 <.L32>:
    34f8:	e2c42503          	lw	a0,-468(s0)
    34fc:	00048613          	mv	a2,s1
    3500:	19000593          	li	a1,400
    3504:	00000097          	auipc	ra,0x0
    3508:	000080e7          	jalr	ra # 3504 <.L32+0xc>
    350c:	f6050ae3          	beqz	a0,3480 <.L31>
    3510:	e2c42503          	lw	a0,-468(s0)
    3514:	00a00593          	li	a1,10
    3518:	00000097          	auipc	ra,0x0
    351c:	000080e7          	jalr	ra # 3518 <.L32+0x20>
    3520:	e2442783          	lw	a5,-476(s0)
    3524:	e2c42903          	lw	s2,-468(s0)
    3528:	e2a42423          	sw	a0,-472(s0)
    352c:	004787b3          	add	a5,a5,tp
    3530:	0007a683          	lw	a3,0(a5)

00003534 <.L6>:
    3534:	00094783          	lbu	a5,0(s2)
    3538:	00179713          	slli	a4,a5,0x1
    353c:	00e68733          	add	a4,a3,a4
    3540:	00075703          	lhu	a4,0(a4) # 8000 <.L281>
    3544:	01777733          	and	a4,a4,s7
    3548:	04071663          	bnez	a4,3594 <.L7>
    354c:	00078863          	beqz	a5,355c <.L10>
    3550:	02300713          	li	a4,35
    3554:	00190d13          	addi	s10,s2,1
    3558:	04e79463          	bne	a5,a4,35a0 <.L11>

0000355c <.L10>:
    355c:	e2842783          	lw	a5,-472(s0)
    3560:	f00798e3          	bnez	a5,3470 <.L4>

00003564 <.L29>:
    3564:	e2c42503          	lw	a0,-468(s0)
    3568:	00048613          	mv	a2,s1
    356c:	19000593          	li	a1,400
    3570:	00000097          	auipc	ra,0x0
    3574:	000080e7          	jalr	ra # 3570 <.L29+0xc>
    3578:	ee050ce3          	beqz	a0,3470 <.L4>
    357c:	e2c42503          	lw	a0,-468(s0)
    3580:	00a00593          	li	a1,10
    3584:	00000097          	auipc	ra,0x0
    3588:	000080e7          	jalr	ra # 3584 <.L29+0x20>
    358c:	fc050ce3          	beqz	a0,3564 <.L29>
    3590:	ee1ff06f          	j	3470 <.L4>

00003594 <.L7>:
    3594:	00190913          	addi	s2,s2,1
    3598:	f9dff06f          	j	3534 <.L6>

0000359c <.L13>:
    359c:	00060d13          	mv	s10,a2

000035a0 <.L11>:
    35a0:	000d4703          	lbu	a4,0(s10)
    35a4:	02070663          	beqz	a4,35d0 <.L15>
    35a8:	00171713          	slli	a4,a4,0x1
    35ac:	00e68733          	add	a4,a3,a4
    35b0:	00075703          	lhu	a4,0(a4)
    35b4:	001d0613          	addi	a2,s10,1
    35b8:	01777733          	and	a4,a4,s7
    35bc:	fe0700e3          	beqz	a4,359c <.L13>
    35c0:	000d0023          	sb	zero,0(s10)
    35c4:	00060d13          	mv	s10,a2
    35c8:	0080006f          	j	35d0 <.L15>

000035cc <.L16>:
    35cc:	001d0d13          	addi	s10,s10,1

000035d0 <.L15>:
    35d0:	000d4603          	lbu	a2,0(s10)
    35d4:	00161713          	slli	a4,a2,0x1
    35d8:	00e68733          	add	a4,a3,a4
    35dc:	00075703          	lhu	a4,0(a4)
    35e0:	01777733          	and	a4,a4,s7
    35e4:	fe0714e3          	bnez	a4,35cc <.L16>
    35e8:	f6060ae3          	beqz	a2,355c <.L10>
    35ec:	001d0713          	addi	a4,s10,1
    35f0:	00002537          	lui	a0,0x2

000035f4 <.L17>:
    35f4:	00074603          	lbu	a2,0(a4)
    35f8:	02060c63          	beqz	a2,3630 <.L18>
    35fc:	00161593          	slli	a1,a2,0x1
    3600:	00b685b3          	add	a1,a3,a1
    3604:	0005d583          	lhu	a1,0(a1)
    3608:	00a5f5b3          	and	a1,a1,a0
    360c:	00058a63          	beqz	a1,3620 <.L19>
    3610:	00a00693          	li	a3,10
    3614:	00d60a63          	beq	a2,a3,3628 <.L35>
    3618:	00070023          	sb	zero,0(a4)
    361c:	0140006f          	j	3630 <.L18>

00003620 <.L19>:
    3620:	00170713          	addi	a4,a4,1
    3624:	fd1ff06f          	j	35f4 <.L17>

00003628 <.L35>:
    3628:	00070023          	sb	zero,0(a4)
    362c:	00c700a3          	sb	a2,1(a4)

00003630 <.L18>:
    3630:	00000d97          	auipc	s11,0x0
    3634:	000d8d93          	mv	s11,s11
    3638:	000da983          	lw	s3,0(s11) # 3630 <.L18>
    363c:	004da683          	lw	a3,4(s11)
    3640:	00000b17          	auipc	s6,0x0
    3644:	000b0b13          	mv	s6,s6
    3648:	02d9e663          	bltu	s3,a3,3674 <.L21>
    364c:	06400a93          	li	s5,100
    3650:	00068463          	beqz	a3,3658 <.L22>
    3654:	00169a93          	slli	s5,a3,0x1

00003658 <.L22>:
    3658:	000b2503          	lw	a0,0(s6) # 3640 <.L18+0x10>
    365c:	003a9593          	slli	a1,s5,0x3
    3660:	00000097          	auipc	ra,0x0
    3664:	000080e7          	jalr	ra # 3660 <.L22+0x8>
    3668:	e0050ce3          	beqz	a0,3480 <.L31>
    366c:	00ab2023          	sw	a0,0(s6)
    3670:	015da223          	sw	s5,4(s11)

00003674 <.L21>:
    3674:	00090513          	mv	a0,s2
    3678:	00000097          	auipc	ra,0x0
    367c:	000080e7          	jalr	ra # 3678 <.L21+0x4>
    3680:	00150613          	addi	a2,a0,1 # 2001 <.L2+0x89>
    3684:	000d0513          	mv	a0,s10
    3688:	e2c42023          	sw	a2,-480(s0)
    368c:	00000097          	auipc	ra,0x0
    3690:	000080e7          	jalr	ra # 368c <.L21+0x18>
    3694:	008da303          	lw	t1,8(s11)
    3698:	e2042603          	lw	a2,-480(s0)
    369c:	00cda683          	lw	a3,12(s11)
    36a0:	00150a93          	addi	s5,a0,1
    36a4:	00c30cb3          	add	s9,t1,a2
    36a8:	015c8c33          	add	s8,s9,s5
    36ac:	004b2803          	lw	a6,4(s6)
    36b0:	0786f263          	bgeu	a3,s8,3714 <.L24>
    36b4:	015605b3          	add	a1,a2,s5
    36b8:	40000513          	li	a0,1024
    36bc:	00a5f463          	bgeu	a1,a0,36c4 <.L25>
    36c0:	40000593          	li	a1,1024

000036c4 <.L25>:
    36c4:	00d585b3          	add	a1,a1,a3
    36c8:	00080513          	mv	a0,a6
    36cc:	e0c42a23          	sw	a2,-492(s0)
    36d0:	e0642c23          	sw	t1,-488(s0)
    36d4:	e0b42e23          	sw	a1,-484(s0)
    36d8:	e3042023          	sw	a6,-480(s0)
    36dc:	00000097          	auipc	ra,0x0
    36e0:	000080e7          	jalr	ra # 36dc <.L25+0x18>
    36e4:	d8050ee3          	beqz	a0,3480 <.L31>
    36e8:	e2042803          	lw	a6,-480(s0)
    36ec:	e1c42583          	lw	a1,-484(s0)
    36f0:	e1842303          	lw	t1,-488(s0)
    36f4:	e1442603          	lw	a2,-492(s0)
    36f8:	00a80a63          	beq	a6,a0,370c <.L26>
    36fc:	000b2683          	lw	a3,0(s6)
    3700:	00000893          	li	a7,0
    3704:	41050833          	sub	a6,a0,a6

00003708 <.L27>:
    3708:	07199263          	bne	s3,a7,376c <.L28>

0000370c <.L26>:
    370c:	00ab2223          	sw	a0,4(s6)
    3710:	00bda623          	sw	a1,12(s11)

00003714 <.L24>:
    3714:	004b2683          	lw	a3,4(s6)
    3718:	000b2b03          	lw	s6,0(s6)
    371c:	00399593          	slli	a1,s3,0x3
    3720:	00668533          	add	a0,a3,t1
    3724:	00bb0b33          	add	s6,s6,a1
    3728:	00090593          	mv	a1,s2
    372c:	e2d42023          	sw	a3,-480(s0)
    3730:	00000097          	auipc	ra,0x0
    3734:	000080e7          	jalr	ra # 3730 <.L24+0x1c>
    3738:	e2042683          	lw	a3,-480(s0)
    373c:	00ab2023          	sw	a0,0(s6)
    3740:	000a8613          	mv	a2,s5
    3744:	000d0593          	mv	a1,s10
    3748:	01968533          	add	a0,a3,s9
    374c:	00000097          	auipc	ra,0x0
    3750:	000080e7          	jalr	ra # 374c <.L24+0x38>
    3754:	00198993          	addi	s3,s3,1
    3758:	00ab2223          	sw	a0,4(s6)
    375c:	018da423          	sw	s8,8(s11)
    3760:	013da023          	sw	s3,0(s11)
    3764:	001a0a13          	addi	s4,s4,1
    3768:	df5ff06f          	j	355c <.L10>

0000376c <.L28>:
    376c:	0006ae03          	lw	t3,0(a3) # 3490 <.L31+0x10>
    3770:	00188893          	addi	a7,a7,1 # 905 <.L2+0x1>
    3774:	00868693          	addi	a3,a3,8
    3778:	010e0e33          	add	t3,t3,a6
    377c:	ffc6ac23          	sw	t3,-8(a3)
    3780:	ffc6ae03          	lw	t3,-4(a3)
    3784:	010e0e33          	add	t3,t3,a6
    3788:	ffc6ae23          	sw	t3,-4(a3)
    378c:	f7dff06f          	j	3708 <.L27>

00003790 <_nl_expand_alias>:
    3790:	fd010113          	addi	sp,sp,-48
    3794:	02812423          	sw	s0,40(sp)
    3798:	00000417          	auipc	s0,0x0
    379c:	00040413          	mv	s0,s0
    37a0:	02912223          	sw	s1,36(sp)
    37a4:	02112623          	sw	ra,44(sp)
    37a8:	03212023          	sw	s2,32(sp)
    37ac:	01312e23          	sw	s3,28(sp)
    37b0:	00050493          	mv	s1,a0
    37b4:	00100713          	li	a4,1
    37b8:	01040613          	addi	a2,s0,16 # 37a8 <_nl_expand_alias+0x18>

000037bc <.L1^B1>:
    37bc:	100627af          	lr.w	a5,(a2)
    37c0:	00079663          	bnez	a5,37cc <.L1^B2>
    37c4:	1ce626af          	sc.w.aq	a3,a4,(a2)
    37c8:	fe069ae3          	bnez	a3,37bc <.L1^B1>

000037cc <.L1^B2>:
    37cc:	00040913          	mv	s2,s0
    37d0:	00078863          	beqz	a5,37e0 <.L73>
    37d4:	00060513          	mv	a0,a2
    37d8:	00000097          	auipc	ra,0x0
    37dc:	000080e7          	jalr	ra # 37d8 <.L1^B2+0xc>

000037e0 <.L73>:
    37e0:	01442783          	lw	a5,20(s0)
    37e4:	00079863          	bnez	a5,37f4 <.L74>
    37e8:	00000797          	auipc	a5,0x0
    37ec:	00078793          	mv	a5,a5
    37f0:	00f42a23          	sw	a5,20(s0)

000037f4 <.L74>:
    37f4:	03a00993          	li	s3,58

000037f8 <.L86>:
    37f8:	00042603          	lw	a2,0(s0)
    37fc:	00912423          	sw	s1,8(sp)
    3800:	02061663          	bnez	a2,382c <.L75>

00003804 <.L77>:
    3804:	00000513          	li	a0,0

00003808 <.L76>:
    3808:	01442583          	lw	a1,20(s0)
    380c:	fe0516e3          	bnez	a0,37f8 <.L86>
    3810:	00000793          	li	a5,0

00003814 <.L82>:
    3814:	0005c703          	lbu	a4,0(a1)
    3818:	08071463          	bnez	a4,38a0 <.L79>
    381c:	00078463          	beqz	a5,3824 <.L88>
    3820:	00b42a23          	sw	a1,20(s0)

00003824 <.L88>:
    3824:	00000413          	li	s0,0
    3828:	02c0006f          	j	3854 <.L78>

0000382c <.L75>:
    382c:	00000717          	auipc	a4,0x0
    3830:	00070713          	mv	a4,a4
    3834:	00800693          	li	a3,8
    3838:	00000597          	auipc	a1,0x0
    383c:	0005a583          	lw	a1,0(a1) # 3838 <.L75+0xc>
    3840:	00810513          	addi	a0,sp,8
    3844:	00000097          	auipc	ra,0x0
    3848:	000080e7          	jalr	ra # 3844 <.L75+0x18>
    384c:	fa050ce3          	beqz	a0,3804 <.L77>
    3850:	00452403          	lw	s0,4(a0)

00003854 <.L78>:
    3854:	00000793          	li	a5,0
    3858:	01090713          	addi	a4,s2,16
    385c:	0f50000f          	fence	iorw,ow
    3860:	08f727af          	amoswap.w	a5,a5,(a4)
    3864:	00100713          	li	a4,1
    3868:	00f75a63          	bge	a4,a5,387c <.L72>
    386c:	00000517          	auipc	a0,0x0
    3870:	00050513          	mv	a0,a0
    3874:	00000097          	auipc	ra,0x0
    3878:	000080e7          	jalr	ra # 3874 <.L78+0x20>

0000387c <.L72>:
    387c:	02c12083          	lw	ra,44(sp)
    3880:	00040513          	mv	a0,s0
    3884:	02812403          	lw	s0,40(sp)
    3888:	02412483          	lw	s1,36(sp)
    388c:	02012903          	lw	s2,32(sp)
    3890:	01c12983          	lw	s3,28(sp)
    3894:	03010113          	addi	sp,sp,48
    3898:	00008067          	ret

0000389c <.L89>:
    389c:	00100793          	li	a5,1

000038a0 <.L79>:
    38a0:	00058513          	mv	a0,a1
    38a4:	00054703          	lbu	a4,0(a0) # 386c <.L78+0x18>
    38a8:	00158593          	addi	a1,a1,1
    38ac:	ff3708e3          	beq	a4,s3,389c <.L89>
    38b0:	00050713          	mv	a4,a0

000038b4 <.L81>:
    38b4:	00074683          	lbu	a3,0(a4) # 382c <.L75>
    38b8:	00070593          	mv	a1,a4
    38bc:	00068663          	beqz	a3,38c8 <.L80>
    38c0:	00170713          	addi	a4,a4,1
    38c4:	03369063          	bne	a3,s3,38e4 <.L90>

000038c8 <.L80>:
    38c8:	f4b576e3          	bgeu	a0,a1,3814 <.L82>
    38cc:	00078463          	beqz	a5,38d4 <.L83>
    38d0:	00b42a23          	sw	a1,20(s0)

000038d4 <.L83>:
    38d4:	40a585b3          	sub	a1,a1,a0
    38d8:	00000097          	auipc	ra,0x0
    38dc:	000080e7          	jalr	ra # 38d8 <.L83+0x4>
    38e0:	f29ff06f          	j	3808 <.L76>

000038e4 <.L90>:
    38e4:	00100793          	li	a5,1
    38e8:	fcdff06f          	j	38b4 <.L81>

000038ec <argz_count__>:
    38ec:	ff010113          	addi	sp,sp,-16
    38f0:	00812423          	sw	s0,8(sp)
    38f4:	00912223          	sw	s1,4(sp)
    38f8:	01212023          	sw	s2,0(sp)
    38fc:	00112623          	sw	ra,12(sp)
    3900:	00050493          	mv	s1,a0
    3904:	00058413          	mv	s0,a1
    3908:	00000913          	li	s2,0

0000390c <.L2>:
    390c:	02041063          	bnez	s0,392c <.L3>
    3910:	00c12083          	lw	ra,12(sp)
    3914:	00812403          	lw	s0,8(sp)
    3918:	00412483          	lw	s1,4(sp)
    391c:	00090513          	mv	a0,s2
    3920:	00012903          	lw	s2,0(sp)
    3924:	01010113          	addi	sp,sp,16
    3928:	00008067          	ret

0000392c <.L3>:
    392c:	00048513          	mv	a0,s1
    3930:	00000097          	auipc	ra,0x0
    3934:	000080e7          	jalr	ra # 3930 <.L3+0x4>
    3938:	00150793          	addi	a5,a0,1
    393c:	40a40433          	sub	s0,s0,a0
    3940:	00f484b3          	add	s1,s1,a5
    3944:	fff40413          	addi	s0,s0,-1
    3948:	00190913          	addi	s2,s2,1
    394c:	fc1ff06f          	j	390c <.L2>

00003950 <_nl_make_l10nflist>:
    3950:	fa010113          	addi	sp,sp,-96
    3954:	04812c23          	sw	s0,88(sp)
    3958:	05412423          	sw	s4,72(sp)
    395c:	00068413          	mv	s0,a3
    3960:	00050a13          	mv	s4,a0
    3964:	00070513          	mv	a0,a4
    3968:	04912a23          	sw	s1,84(sp)
    396c:	05212823          	sw	s2,80(sp)
    3970:	05312623          	sw	s3,76(sp)
    3974:	03712e23          	sw	s7,60(sp)
    3978:	03812c23          	sw	s8,56(sp)
    397c:	03b12623          	sw	s11,44(sp)
    3980:	00060493          	mv	s1,a2
    3984:	04112e23          	sw	ra,92(sp)
    3988:	05512223          	sw	s5,68(sp)
    398c:	05612023          	sw	s6,64(sp)
    3990:	03912a23          	sw	s9,52(sp)
    3994:	03a12823          	sw	s10,48(sp)
    3998:	00b12823          	sw	a1,16(sp)
    399c:	00e12a23          	sw	a4,20(sp)
    39a0:	00f12c23          	sw	a5,24(sp)
    39a4:	01012e23          	sw	a6,28(sp)
    39a8:	00088b93          	mv	s7,a7
    39ac:	00447d93          	andi	s11,s0,4
    39b0:	00000097          	auipc	ra,0x0
    39b4:	000080e7          	jalr	ra # 39b0 <_nl_make_l10nflist+0x60>
    39b8:	00050c13          	mv	s8,a0
    39bc:	00248993          	addi	s3,s1,2
    39c0:	00000913          	li	s2,0
    39c4:	000d8a63          	beqz	s11,39d8 <.L6>
    39c8:	01812503          	lw	a0,24(sp)
    39cc:	00000097          	auipc	ra,0x0
    39d0:	000080e7          	jalr	ra # 39cc <_nl_make_l10nflist+0x7c>
    39d4:	00150913          	addi	s2,a0,1

000039d8 <.L6>:
    39d8:	00247d13          	andi	s10,s0,2
    39dc:	013c0c33          	add	s8,s8,s3
    39e0:	00000993          	li	s3,0
    39e4:	000d0a63          	beqz	s10,39f8 <.L7>
    39e8:	01c12503          	lw	a0,28(sp)
    39ec:	00000097          	auipc	ra,0x0
    39f0:	000080e7          	jalr	ra # 39ec <.L6+0x14>
    39f4:	00150993          	addi	s3,a0,1

000039f8 <.L7>:
    39f8:	00147c93          	andi	s9,s0,1
    39fc:	01890c33          	add	s8,s2,s8
    3a00:	00000913          	li	s2,0
    3a04:	000c8a63          	beqz	s9,3a18 <.L8>
    3a08:	000b8513          	mv	a0,s7
    3a0c:	00000097          	auipc	ra,0x0
    3a10:	000080e7          	jalr	ra # 3a0c <.L7+0x14>
    3a14:	00150913          	addi	s2,a0,1

00003a18 <.L8>:
    3a18:	018989b3          	add	s3,s3,s8
    3a1c:	00847c13          	andi	s8,s0,8
    3a20:	00000a93          	li	s5,0
    3a24:	000c0a63          	beqz	s8,3a38 <.L9>
    3a28:	06012503          	lw	a0,96(sp)
    3a2c:	00000097          	auipc	ra,0x0
    3a30:	000080e7          	jalr	ra # 3a2c <.L8+0x14>
    3a34:	00150a93          	addi	s5,a0,1

00003a38 <.L9>:
    3a38:	06412503          	lw	a0,100(sp)
    3a3c:	01390933          	add	s2,s2,s3
    3a40:	01590933          	add	s2,s2,s5
    3a44:	00000097          	auipc	ra,0x0
    3a48:	000080e7          	jalr	ra # 3a44 <.L9+0xc>
    3a4c:	00a90533          	add	a0,s2,a0
    3a50:	00000097          	auipc	ra,0x0
    3a54:	000080e7          	jalr	ra # 3a50 <.L9+0x18>
    3a58:	00050913          	mv	s2,a0
    3a5c:	18050e63          	beqz	a0,3bf8 <.L10>
    3a60:	01012583          	lw	a1,16(sp)
    3a64:	00048613          	mv	a2,s1
    3a68:	00000097          	auipc	ra,0x0
    3a6c:	000080e7          	jalr	ra # 3a68 <.L9+0x30>
    3a70:	02048c63          	beqz	s1,3aa8 <.L11>
    3a74:	00048993          	mv	s3,s1
    3a78:	00090b13          	mv	s6,s2
    3a7c:	03a00a93          	li	s5,58

00003a80 <.L12>:
    3a80:	000b0513          	mv	a0,s6
    3a84:	00000097          	auipc	ra,0x0
    3a88:	000080e7          	jalr	ra # 3a84 <.L12+0x4>
    3a8c:	40a989b3          	sub	s3,s3,a0
    3a90:	fff98993          	addi	s3,s3,-1
    3a94:	00ab0733          	add	a4,s6,a0
    3a98:	00098863          	beqz	s3,3aa8 <.L11>
    3a9c:	00170b13          	addi	s6,a4,1
    3aa0:	01570023          	sb	s5,0(a4)
    3aa4:	fddff06f          	j	3a80 <.L12>

00003aa8 <.L11>:
    3aa8:	01412583          	lw	a1,20(sp)
    3aac:	00990533          	add	a0,s2,s1
    3ab0:	02f00793          	li	a5,47
    3ab4:	fef50fa3          	sb	a5,-1(a0)
    3ab8:	00000097          	auipc	ra,0x0
    3abc:	000080e7          	jalr	ra # 3ab8 <.L11+0x10>
    3ac0:	000d8e63          	beqz	s11,3adc <.L13>
    3ac4:	01812583          	lw	a1,24(sp)
    3ac8:	05f00793          	li	a5,95
    3acc:	00f50023          	sb	a5,0(a0)
    3ad0:	00150513          	addi	a0,a0,1
    3ad4:	00000097          	auipc	ra,0x0
    3ad8:	000080e7          	jalr	ra # 3ad4 <.L11+0x2c>

00003adc <.L13>:
    3adc:	000d0e63          	beqz	s10,3af8 <.L14>
    3ae0:	01c12583          	lw	a1,28(sp)
    3ae4:	02e00793          	li	a5,46
    3ae8:	00f50023          	sb	a5,0(a0)
    3aec:	00150513          	addi	a0,a0,1
    3af0:	00000097          	auipc	ra,0x0
    3af4:	000080e7          	jalr	ra # 3af0 <.L13+0x14>

00003af8 <.L14>:
    3af8:	000c8e63          	beqz	s9,3b14 <.L15>
    3afc:	02e00793          	li	a5,46
    3b00:	00f50023          	sb	a5,0(a0)
    3b04:	000b8593          	mv	a1,s7
    3b08:	00150513          	addi	a0,a0,1
    3b0c:	00000097          	auipc	ra,0x0
    3b10:	000080e7          	jalr	ra # 3b0c <.L14+0x14>

00003b14 <.L15>:
    3b14:	000c0e63          	beqz	s8,3b30 <.L16>
    3b18:	06012583          	lw	a1,96(sp)
    3b1c:	04000793          	li	a5,64
    3b20:	00f50023          	sb	a5,0(a0)
    3b24:	00150513          	addi	a0,a0,1
    3b28:	00000097          	auipc	ra,0x0
    3b2c:	000080e7          	jalr	ra # 3b28 <.L15+0x14>

00003b30 <.L16>:
    3b30:	06412583          	lw	a1,100(sp)
    3b34:	02f00793          	li	a5,47
    3b38:	00f50023          	sb	a5,0(a0)
    3b3c:	00150513          	addi	a0,a0,1
    3b40:	00000097          	auipc	ra,0x0
    3b44:	000080e7          	jalr	ra # 3b40 <.L16+0x10>
    3b48:	000a2983          	lw	s3,0(s4)
    3b4c:	00000c93          	li	s9,0
    3b50:	00098c13          	mv	s8,s3

00003b54 <.L17>:
    3b54:	0a0c1663          	bnez	s8,3c00 <.L21>

00003b58 <.L20>:
    3b58:	06812783          	lw	a5,104(sp)
    3b5c:	00000c13          	li	s8,0
    3b60:	0c078463          	beqz	a5,3c28 <.L19>
    3b64:	01012503          	lw	a0,16(sp)
    3b68:	00048593          	mv	a1,s1
    3b6c:	00000097          	auipc	ra,0x0
    3b70:	000080e7          	jalr	ra # 3b6c <.L20+0x14>
    3b74:	ffffd737          	lui	a4,0xffffd
    3b78:	55570713          	addi	a4,a4,1365 # ffffd555 <.L53+0xfffaf769>
    3b7c:	40145793          	srai	a5,s0,0x1
    3b80:	00e7f7b3          	and	a5,a5,a4
    3b84:	00005737          	lui	a4,0x5
    3b88:	55570713          	addi	a4,a4,1365 # 5555 <.L55+0x29>
    3b8c:	00e47733          	and	a4,s0,a4
    3b90:	00e787b3          	add	a5,a5,a4
    3b94:	fffff6b7          	lui	a3,0xfffff
    3b98:	4027d713          	srai	a4,a5,0x2
    3b9c:	33368693          	addi	a3,a3,819 # fffff333 <.L53+0xfffb1547>
    3ba0:	00d77733          	and	a4,a4,a3
    3ba4:	000036b7          	lui	a3,0x3
    3ba8:	33368693          	addi	a3,a3,819 # 3333 <.L26+0x3f>
    3bac:	00d7f7b3          	and	a5,a5,a3
    3bb0:	00f70733          	add	a4,a4,a5
    3bb4:	40475793          	srai	a5,a4,0x4
    3bb8:	00e787b3          	add	a5,a5,a4
    3bbc:	00001737          	lui	a4,0x1
    3bc0:	f0f70713          	addi	a4,a4,-241 # f0f <.L74+0x1b>
    3bc4:	00e7f7b3          	and	a5,a5,a4
    3bc8:	4087d713          	srai	a4,a5,0x8
    3bcc:	00f707b3          	add	a5,a4,a5
    3bd0:	00f51533          	sll	a0,a0,a5
    3bd4:	00550513          	addi	a0,a0,5
    3bd8:	00251513          	slli	a0,a0,0x2
    3bdc:	00000097          	auipc	ra,0x0
    3be0:	000080e7          	jalr	ra # 3bdc <.L20+0x84>
    3be4:	00050c13          	mv	s8,a0
    3be8:	08051663          	bnez	a0,3c74 <.L23>
    3bec:	00090513          	mv	a0,s2
    3bf0:	00000097          	auipc	ra,0x0
    3bf4:	000080e7          	jalr	ra # 3bf0 <.L20+0x98>

00003bf8 <.L10>:
    3bf8:	00000c13          	li	s8,0
    3bfc:	0380006f          	j	3c34 <.L5>

00003c00 <.L21>:
    3c00:	000c2503          	lw	a0,0(s8)
    3c04:	00050e63          	beqz	a0,3c20 <.L18>
    3c08:	00090593          	mv	a1,s2
    3c0c:	00000097          	auipc	ra,0x0
    3c10:	000080e7          	jalr	ra # 3c0c <.L21+0xc>
    3c14:	00050a63          	beqz	a0,3c28 <.L19>
    3c18:	f40540e3          	bltz	a0,3b58 <.L20>
    3c1c:	000c0c93          	mv	s9,s8

00003c20 <.L18>:
    3c20:	00cc2c03          	lw	s8,12(s8)
    3c24:	f31ff06f          	j	3b54 <.L17>

00003c28 <.L19>:
    3c28:	00090513          	mv	a0,s2
    3c2c:	00000097          	auipc	ra,0x0
    3c30:	000080e7          	jalr	ra # 3c2c <.L19+0x4>

00003c34 <.L5>:
    3c34:	05c12083          	lw	ra,92(sp)
    3c38:	05812403          	lw	s0,88(sp)
    3c3c:	05412483          	lw	s1,84(sp)
    3c40:	05012903          	lw	s2,80(sp)
    3c44:	04c12983          	lw	s3,76(sp)
    3c48:	04812a03          	lw	s4,72(sp)
    3c4c:	04412a83          	lw	s5,68(sp)
    3c50:	04012b03          	lw	s6,64(sp)
    3c54:	03c12b83          	lw	s7,60(sp)
    3c58:	03412c83          	lw	s9,52(sp)
    3c5c:	03012d03          	lw	s10,48(sp)
    3c60:	02c12d83          	lw	s11,44(sp)
    3c64:	000c0513          	mv	a0,s8
    3c68:	03812c03          	lw	s8,56(sp)
    3c6c:	06010113          	addi	sp,sp,96
    3c70:	00008067          	ret

00003c74 <.L23>:
    3c74:	01252023          	sw	s2,0(a0)
    3c78:	01012503          	lw	a0,16(sp)
    3c7c:	00048593          	mv	a1,s1
    3c80:	00000097          	auipc	ra,0x0
    3c84:	000080e7          	jalr	ra # 3c80 <.L23+0xc>
    3c88:	00100793          	li	a5,1
    3c8c:	00f51863          	bne	a0,a5,3c9c <.L24>
    3c90:	00347793          	andi	a5,s0,3
    3c94:	ffd78793          	addi	a5,a5,-3 # 37e5 <.L73+0x5>
    3c98:	0017b793          	seqz	a5,a5

00003c9c <.L24>:
    3c9c:	00fc2223          	sw	a5,4(s8)
    3ca0:	000c2423          	sw	zero,8(s8)
    3ca4:	020c9c63          	bnez	s9,3cdc <.L25>
    3ca8:	013c2623          	sw	s3,12(s8)
    3cac:	018a2023          	sw	s8,0(s4)

00003cb0 <.L26>:
    3cb0:	01012503          	lw	a0,16(sp)
    3cb4:	00048593          	mv	a1,s1
    3cb8:	00040c93          	mv	s9,s0
    3cbc:	00000097          	auipc	ra,0x0
    3cc0:	000080e7          	jalr	ra # 3cbc <.L26+0xc>
    3cc4:	00100793          	li	a5,1
    3cc8:	00f51463          	bne	a0,a5,3cd0 <.L27>
    3ccc:	fff40c93          	addi	s9,s0,-1

00003cd0 <.L27>:
    3cd0:	00000913          	li	s2,0
    3cd4:	fff44413          	not	s0,s0
    3cd8:	09c0006f          	j	3d74 <.L31>

00003cdc <.L25>:
    3cdc:	00cca783          	lw	a5,12(s9)
    3ce0:	00fc2623          	sw	a5,12(s8)
    3ce4:	018ca623          	sw	s8,12(s9)
    3ce8:	fc9ff06f          	j	3cb0 <.L26>

00003cec <.L32>:
    3cec:	019477b3          	and	a5,s0,s9
    3cf0:	08079063          	bnez	a5,3d70 <.L29>
    3cf4:	00000d13          	li	s10,0
    3cf8:	00100993          	li	s3,1
    3cfc:	0580006f          	j	3d54 <.L28>

00003d00 <.L30>:
    3d00:	00000097          	auipc	ra,0x0
    3d04:	000080e7          	jalr	ra # 3d00 <.L30>
    3d08:	06412783          	lw	a5,100(sp)
    3d0c:	01c12803          	lw	a6,28(sp)
    3d10:	01412703          	lw	a4,20(sp)
    3d14:	00f12223          	sw	a5,4(sp)
    3d18:	06012783          	lw	a5,96(sp)
    3d1c:	00150613          	addi	a2,a0,1
    3d20:	01312423          	sw	s3,8(sp)
    3d24:	00f12023          	sw	a5,0(sp)
    3d28:	01812783          	lw	a5,24(sp)
    3d2c:	000b8893          	mv	a7,s7
    3d30:	000c8693          	mv	a3,s9
    3d34:	000d0593          	mv	a1,s10
    3d38:	000a0513          	mv	a0,s4
    3d3c:	00000097          	auipc	ra,0x0
    3d40:	000080e7          	jalr	ra # 3d3c <.L30+0x3c>
    3d44:	00190913          	addi	s2,s2,1
    3d48:	00291793          	slli	a5,s2,0x2
    3d4c:	00fc07b3          	add	a5,s8,a5
    3d50:	00a7a623          	sw	a0,12(a5)

00003d54 <.L28>:
    3d54:	01012503          	lw	a0,16(sp)
    3d58:	000d0613          	mv	a2,s10
    3d5c:	00048593          	mv	a1,s1
    3d60:	00000097          	auipc	ra,0x0
    3d64:	000080e7          	jalr	ra # 3d60 <.L28+0xc>
    3d68:	00050d13          	mv	s10,a0
    3d6c:	f8051ae3          	bnez	a0,3d00 <.L30>

00003d70 <.L29>:
    3d70:	fffc8c93          	addi	s9,s9,-1

00003d74 <.L31>:
    3d74:	f60cdce3          	bgez	s9,3cec <.L32>
    3d78:	00490913          	addi	s2,s2,4
    3d7c:	00291913          	slli	s2,s2,0x2
    3d80:	012c0933          	add	s2,s8,s2
    3d84:	00092023          	sw	zero,0(s2)
    3d88:	eadff06f          	j	3c34 <.L5>

00003d8c <_nl_normalize_codeset>:
    3d8c:	fe010113          	addi	sp,sp,-32
    3d90:	01312623          	sw	s3,12(sp)
    3d94:	00000997          	auipc	s3,0x0
    3d98:	00098993          	mv	s3,s3
    3d9c:	01212823          	sw	s2,16(sp)
    3da0:	0349a903          	lw	s2,52(s3) # 3dc8 <.L78>
    3da4:	00812c23          	sw	s0,24(sp)
    3da8:	00912a23          	sw	s1,20(sp)
    3dac:	00058413          	mv	s0,a1
    3db0:	00112e23          	sw	ra,28(sp)
    3db4:	00050493          	mv	s1,a0
    3db8:	00000713          	li	a4,0
    3dbc:	00100593          	li	a1,1
    3dc0:	00000793          	li	a5,0
    3dc4:	00900813          	li	a6,9

00003dc8 <.L78>:
    3dc8:	00178513          	addi	a0,a5,1
    3dcc:	02871c63          	bne	a4,s0,3e04 <.L80>
    3dd0:	06058a63          	beqz	a1,3e44 <.L81>
    3dd4:	00478513          	addi	a0,a5,4
    3dd8:	00000097          	auipc	ra,0x0
    3ddc:	000080e7          	jalr	ra # 3dd8 <.L78+0x10>
    3de0:	08051663          	bnez	a0,3e6c <.L82>

00003de4 <.L85>:
    3de4:	00000513          	li	a0,0

00003de8 <.L77>:
    3de8:	01c12083          	lw	ra,28(sp)
    3dec:	01812403          	lw	s0,24(sp)
    3df0:	01412483          	lw	s1,20(sp)
    3df4:	01012903          	lw	s2,16(sp)
    3df8:	00c12983          	lw	s3,12(sp)
    3dfc:	02010113          	addi	sp,sp,32
    3e00:	00008067          	ret

00003e04 <.L80>:
    3e04:	00e486b3          	add	a3,s1,a4
    3e08:	0006c683          	lbu	a3,0(a3)
    3e0c:	00169613          	slli	a2,a3,0x1
    3e10:	00c90633          	add	a2,s2,a2
    3e14:	00065603          	lhu	a2,0(a2) # 3388 <alias_compare+0x8>
    3e18:	00867613          	andi	a2,a2,8
    3e1c:	00060c63          	beqz	a2,3e34 <.L90>
    3e20:	fd068693          	addi	a3,a3,-48
    3e24:	00d86c63          	bltu	a6,a3,3e3c <.L91>

00003e28 <.L79>:
    3e28:	00170713          	addi	a4,a4,1
    3e2c:	00050793          	mv	a5,a0
    3e30:	f99ff06f          	j	3dc8 <.L78>

00003e34 <.L90>:
    3e34:	00078513          	mv	a0,a5
    3e38:	ff1ff06f          	j	3e28 <.L79>

00003e3c <.L91>:
    3e3c:	00000593          	li	a1,0
    3e40:	fe9ff06f          	j	3e28 <.L79>

00003e44 <.L81>:
    3e44:	00000097          	auipc	ra,0x0
    3e48:	000080e7          	jalr	ra # 3e44 <.L81>
    3e4c:	00050793          	mv	a5,a0
    3e50:	f8050ae3          	beqz	a0,3de4 <.L85>

00003e54 <.L84>:
    3e54:	0389a583          	lw	a1,56(s3)
    3e58:	00000693          	li	a3,0
    3e5c:	00900813          	li	a6,9

00003e60 <.L86>:
    3e60:	02869063          	bne	a3,s0,3e80 <.L89>
    3e64:	00078023          	sb	zero,0(a5)
    3e68:	f81ff06f          	j	3de8 <.L77>

00003e6c <.L82>:
    3e6c:	006f77b7          	lui	a5,0x6f7
    3e70:	36978793          	addi	a5,a5,873 # 6f7369 <.L53+0x6a957d>
    3e74:	00f52023          	sw	a5,0(a0)
    3e78:	00350793          	addi	a5,a0,3
    3e7c:	fd9ff06f          	j	3e54 <.L84>

00003e80 <.L89>:
    3e80:	00d48733          	add	a4,s1,a3
    3e84:	00074703          	lbu	a4,0(a4)
    3e88:	00171613          	slli	a2,a4,0x1
    3e8c:	00c90633          	add	a2,s2,a2
    3e90:	00065603          	lhu	a2,0(a2)
    3e94:	40067613          	andi	a2,a2,1024
    3e98:	00060e63          	beqz	a2,3eb4 <.L87>
    3e9c:	00271713          	slli	a4,a4,0x2
    3ea0:	00e58733          	add	a4,a1,a4
    3ea4:	00072703          	lw	a4,0(a4)

00003ea8 <.L94>:
    3ea8:	00e78023          	sb	a4,0(a5)
    3eac:	00178793          	addi	a5,a5,1
    3eb0:	00c0006f          	j	3ebc <.L88>

00003eb4 <.L87>:
    3eb4:	fd070613          	addi	a2,a4,-48
    3eb8:	fec878e3          	bgeu	a6,a2,3ea8 <.L94>

00003ebc <.L88>:
    3ebc:	00168693          	addi	a3,a3,1
    3ec0:	fa1ff06f          	j	3e60 <.L86>

00003ec4 <_nl_explode_name>:
    3ec4:	fd010113          	addi	sp,sp,-48
    3ec8:	02812423          	sw	s0,40(sp)
    3ecc:	03212023          	sw	s2,32(sp)
    3ed0:	01412c23          	sw	s4,24(sp)
    3ed4:	01612823          	sw	s6,16(sp)
    3ed8:	01712623          	sw	s7,12(sp)
    3edc:	02112623          	sw	ra,44(sp)
    3ee0:	02912223          	sw	s1,36(sp)
    3ee4:	01312e23          	sw	s3,28(sp)
    3ee8:	01512a23          	sw	s5,20(sp)
    3eec:	00062023          	sw	zero,0(a2)
    3ef0:	0006a023          	sw	zero,0(a3)
    3ef4:	00072023          	sw	zero,0(a4)
    3ef8:	0007a023          	sw	zero,0(a5)
    3efc:	00060b13          	mv	s6,a2
    3f00:	00068a13          	mv	s4,a3
    3f04:	00070913          	mv	s2,a4
    3f08:	00a5a023          	sw	a0,0(a1)
    3f0c:	00050413          	mv	s0,a0
    3f10:	00078b93          	mv	s7,a5
    3f14:	00050593          	mv	a1,a0
    3f18:	05f00693          	li	a3,95
    3f1c:	04000613          	li	a2,64
    3f20:	02e00713          	li	a4,46

00003f24 <.L2>:
    3f24:	0005c783          	lbu	a5,0(a1)
    3f28:	00078863          	beqz	a5,3f38 <.L3>
    3f2c:	0cd78c63          	beq	a5,a3,4004 <.L4>
    3f30:	00c78463          	beq	a5,a2,3f38 <.L3>
    3f34:	08e79e63          	bne	a5,a4,3fd0 <.L5>

00003f38 <.L3>:
    3f38:	00000a93          	li	s5,0
    3f3c:	0eb41863          	bne	s0,a1,402c <.L8>

00003f40 <.L18>:
    3f40:	00040513          	mv	a0,s0
    3f44:	00000097          	auipc	ra,0x0
    3f48:	000080e7          	jalr	ra # 3f44 <.L18+0x4>
    3f4c:	00a40433          	add	s0,s0,a0
    3f50:	00000493          	li	s1,0

00003f54 <.L6>:
    3f54:	00044703          	lbu	a4,0(s0)
    3f58:	04000793          	li	a5,64
    3f5c:	00f71e63          	bne	a4,a5,3f78 <.L16>
    3f60:	00140793          	addi	a5,s0,1
    3f64:	00040023          	sb	zero,0(s0)
    3f68:	00fb2023          	sw	a5,0(s6)
    3f6c:	00144783          	lbu	a5,1(s0)
    3f70:	00078463          	beqz	a5,3f78 <.L16>
    3f74:	0084e493          	ori	s1,s1,8

00003f78 <.L16>:
    3f78:	000a2783          	lw	a5,0(s4)
    3f7c:	00078863          	beqz	a5,3f8c <.L17>
    3f80:	0007c783          	lbu	a5,0(a5)
    3f84:	00079463          	bnez	a5,3f8c <.L17>
    3f88:	ffb4f493          	andi	s1,s1,-5

00003f8c <.L17>:
    3f8c:	00092783          	lw	a5,0(s2)
    3f90:	00078863          	beqz	a5,3fa0 <.L1>
    3f94:	0007c783          	lbu	a5,0(a5)
    3f98:	00079463          	bnez	a5,3fa0 <.L1>
    3f9c:	ffd4f493          	andi	s1,s1,-3

00003fa0 <.L1>:
    3fa0:	02c12083          	lw	ra,44(sp)
    3fa4:	02812403          	lw	s0,40(sp)
    3fa8:	02012903          	lw	s2,32(sp)
    3fac:	01c12983          	lw	s3,28(sp)
    3fb0:	01812a03          	lw	s4,24(sp)
    3fb4:	01412a83          	lw	s5,20(sp)
    3fb8:	01012b03          	lw	s6,16(sp)
    3fbc:	00c12b83          	lw	s7,12(sp)
    3fc0:	00048513          	mv	a0,s1
    3fc4:	02412483          	lw	s1,36(sp)
    3fc8:	03010113          	addi	sp,sp,48
    3fcc:	00008067          	ret

00003fd0 <.L5>:
    3fd0:	00158593          	addi	a1,a1,1
    3fd4:	f51ff06f          	j	3f24 <.L2>

00003fd8 <.L9>:
    3fd8:	00158593          	addi	a1,a1,1
    3fdc:	03c0006f          	j	4018 <.L7>

00003fe0 <.L11>:
    3fe0:	00140413          	addi	s0,s0,1
    3fe4:	0640006f          	j	4048 <.L10>

00003fe8 <.L13>:
    3fe8:	003ae493          	ori	s1,s5,3
    3fec:	f69ff06f          	j	3f54 <.L6>

00003ff0 <.L21>:
    3ff0:	000a8493          	mv	s1,s5
    3ff4:	00058413          	mv	s0,a1
    3ff8:	f5dff06f          	j	3f54 <.L6>

00003ffc <.L23>:
    3ffc:	fff00493          	li	s1,-1
    4000:	fa1ff06f          	j	3fa0 <.L1>

00004004 <.L4>:
    4004:	f2b40ee3          	beq	s0,a1,3f40 <.L18>
    4008:	00058023          	sb	zero,0(a1)
    400c:	00158593          	addi	a1,a1,1
    4010:	00ba2023          	sw	a1,0(s4)
    4014:	02e00713          	li	a4,46

00004018 <.L7>:
    4018:	0005c783          	lbu	a5,0(a1)
    401c:	0bf7f693          	andi	a3,a5,191
    4020:	00068463          	beqz	a3,4028 <.L20>
    4024:	fae79ae3          	bne	a5,a4,3fd8 <.L9>

00004028 <.L20>:
    4028:	00400a93          	li	s5,4

0000402c <.L8>:
    402c:	0005c703          	lbu	a4,0(a1)
    4030:	02e00793          	li	a5,46
    4034:	faf71ee3          	bne	a4,a5,3ff0 <.L21>
    4038:	00158513          	addi	a0,a1,1
    403c:	00058023          	sb	zero,0(a1)
    4040:	00a92023          	sw	a0,0(s2)
    4044:	00050413          	mv	s0,a0

00004048 <.L10>:
    4048:	00044783          	lbu	a5,0(s0)
    404c:	0bf7f793          	andi	a5,a5,191
    4050:	f80798e3          	bnez	a5,3fe0 <.L11>
    4054:	002ae493          	ori	s1,s5,2
    4058:	eea40ee3          	beq	s0,a0,3f54 <.L6>
    405c:	0015c783          	lbu	a5,1(a1)
    4060:	ee078ae3          	beqz	a5,3f54 <.L6>
    4064:	40a405b3          	sub	a1,s0,a0
    4068:	00000097          	auipc	ra,0x0
    406c:	000080e7          	jalr	ra # 4068 <.L10+0x20>
    4070:	00aba023          	sw	a0,0(s7) # 2000 <.L2+0x88>
    4074:	00050993          	mv	s3,a0
    4078:	f80502e3          	beqz	a0,3ffc <.L23>
    407c:	00050593          	mv	a1,a0
    4080:	00092503          	lw	a0,0(s2)
    4084:	00000097          	auipc	ra,0x0
    4088:	000080e7          	jalr	ra # 4084 <.L10+0x3c>
    408c:	f4051ee3          	bnez	a0,3fe8 <.L13>
    4090:	00098513          	mv	a0,s3
    4094:	00000097          	auipc	ra,0x0
    4098:	000080e7          	jalr	ra # 4094 <.L10+0x4c>
    409c:	eb9ff06f          	j	3f54 <.L6>

000040a0 <__gettext_free_exp>:
    40a0:	06050863          	beqz	a0,4110 <.L1>
    40a4:	00052783          	lw	a5,0(a0)
    40a8:	ff010113          	addi	sp,sp,-16
    40ac:	00812423          	sw	s0,8(sp)
    40b0:	00112623          	sw	ra,12(sp)
    40b4:	00200713          	li	a4,2
    40b8:	00050413          	mv	s0,a0
    40bc:	04e78263          	beq	a5,a4,4100 <.L3>
    40c0:	00300713          	li	a4,3
    40c4:	02e78863          	beq	a5,a4,40f4 <.L4>
    40c8:	00100713          	li	a4,1
    40cc:	00e79863          	bne	a5,a4,40dc <.L6>

000040d0 <.L5>:
    40d0:	00842503          	lw	a0,8(s0)
    40d4:	00000097          	auipc	ra,0x0
    40d8:	000080e7          	jalr	ra # 40d4 <.L5+0x4>

000040dc <.L6>:
    40dc:	00040513          	mv	a0,s0
    40e0:	00812403          	lw	s0,8(sp)
    40e4:	00c12083          	lw	ra,12(sp)
    40e8:	01010113          	addi	sp,sp,16
    40ec:	00000317          	auipc	t1,0x0
    40f0:	00030067          	jr	t1 # 40ec <.L6+0x10>

000040f4 <.L4>:
    40f4:	01052503          	lw	a0,16(a0)
    40f8:	00000097          	auipc	ra,0x0
    40fc:	000080e7          	jalr	ra # 40f8 <.L4+0x4>

00004100 <.L3>:
    4100:	00c42503          	lw	a0,12(s0)
    4104:	00000097          	auipc	ra,0x0
    4108:	000080e7          	jalr	ra # 4104 <.L3+0x4>
    410c:	fc5ff06f          	j	40d0 <.L5>

00004110 <.L1>:
    4110:	00008067          	ret

00004114 <new_exp>:
    4114:	fd010113          	addi	sp,sp,-48
    4118:	03212023          	sw	s2,32(sp)
    411c:	00060913          	mv	s2,a2
    4120:	00251613          	slli	a2,a0,0x2
    4124:	02812423          	sw	s0,40(sp)
    4128:	01312e23          	sw	s3,28(sp)
    412c:	02112623          	sw	ra,44(sp)
    4130:	02912223          	sw	s1,36(sp)
    4134:	00050413          	mv	s0,a0
    4138:	00058993          	mv	s3,a1
    413c:	00c907b3          	add	a5,s2,a2

00004140 <.L11>:
    4140:	04f91c63          	bne	s2,a5,4198 <.L13>
    4144:	01400513          	li	a0,20
    4148:	00c12623          	sw	a2,12(sp)
    414c:	00000097          	auipc	ra,0x0
    4150:	000080e7          	jalr	ra # 414c <.L11+0xc>
    4154:	00050493          	mv	s1,a0
    4158:	04050663          	beqz	a0,41a4 <.L14>
    415c:	00c12603          	lw	a2,12(sp)
    4160:	00852023          	sw	s0,0(a0)
    4164:	01352223          	sw	s3,4(a0)
    4168:	00090593          	mv	a1,s2
    416c:	00850513          	addi	a0,a0,8
    4170:	00000097          	auipc	ra,0x0
    4174:	000080e7          	jalr	ra # 4170 <.L11+0x30>

00004178 <.L10>:
    4178:	02c12083          	lw	ra,44(sp)
    417c:	02812403          	lw	s0,40(sp)
    4180:	02012903          	lw	s2,32(sp)
    4184:	01c12983          	lw	s3,28(sp)
    4188:	00048513          	mv	a0,s1
    418c:	02412483          	lw	s1,36(sp)
    4190:	03010113          	addi	sp,sp,48
    4194:	00008067          	ret

00004198 <.L13>:
    4198:	ffc7a703          	lw	a4,-4(a5)
    419c:	ffc78793          	addi	a5,a5,-4
    41a0:	fa0710e3          	bnez	a4,4140 <.L11>

000041a4 <.L14>:
    41a4:	fff40413          	addi	s0,s0,-1
    41a8:	fff00493          	li	s1,-1

000041ac <.L12>:
    41ac:	00941663          	bne	s0,s1,41b8 <.L16>
    41b0:	00000493          	li	s1,0
    41b4:	fc5ff06f          	j	4178 <.L10>

000041b8 <.L16>:
    41b8:	00241793          	slli	a5,s0,0x2
    41bc:	00f907b3          	add	a5,s2,a5
    41c0:	0007a503          	lw	a0,0(a5)
    41c4:	fff40413          	addi	s0,s0,-1
    41c8:	00000097          	auipc	ra,0x0
    41cc:	000080e7          	jalr	ra # 41c8 <.L16+0x10>
    41d0:	fddff06f          	j	41ac <.L12>

000041d4 <new_exp_2>:
    41d4:	fe010113          	addi	sp,sp,-32
    41d8:	00b12423          	sw	a1,8(sp)
    41dc:	00c12623          	sw	a2,12(sp)
    41e0:	00050593          	mv	a1,a0
    41e4:	00810613          	addi	a2,sp,8
    41e8:	00200513          	li	a0,2
    41ec:	00112e23          	sw	ra,28(sp)
    41f0:	00000097          	auipc	ra,0x0
    41f4:	000080e7          	jalr	ra # 41f0 <new_exp_2+0x1c>
    41f8:	01c12083          	lw	ra,28(sp)
    41fc:	02010113          	addi	sp,sp,32
    4200:	00008067          	ret

00004204 <__gettextparse>:
    4204:	bb010113          	addi	sp,sp,-1104
    4208:	000027b7          	lui	a5,0x2
    420c:	44912223          	sw	s1,1092(sp)
    4210:	41b12e23          	sw	s11,1052(sp)
    4214:	02810493          	addi	s1,sp,40
    4218:	0f010d93          	addi	s11,sp,240
    421c:	71078793          	addi	a5,a5,1808 # 2710 <.L52+0x44>
    4220:	43312e23          	sw	s3,1084(sp)
    4224:	43412c23          	sw	s4,1080(sp)
    4228:	43512a23          	sw	s5,1076(sp)
    422c:	43612823          	sw	s6,1072(sp)
    4230:	43712623          	sw	s7,1068(sp)
    4234:	43812423          	sw	s8,1064(sp)
    4238:	44112623          	sw	ra,1100(sp)
    423c:	44812423          	sw	s0,1096(sp)
    4240:	45212023          	sw	s2,1088(sp)
    4244:	43912223          	sw	s9,1060(sp)
    4248:	43a12023          	sw	s10,1056(sp)
    424c:	00050a93          	mv	s5,a0
    4250:	01b12023          	sw	s11,0(sp)
    4254:	00048993          	mv	s3,s1
    4258:	0c800a13          	li	s4,200
    425c:	00000b13          	li	s6,0
    4260:	00000693          	li	a3,0
    4264:	ffe00c13          	li	s8,-2
    4268:	00912223          	sw	s1,4(sp)
    426c:	00f12423          	sw	a5,8(sp)
    4270:	00000b97          	auipc	s7,0x0
    4274:	000b8b93          	mv	s7,s7

00004278 <.L25>:
    4278:	fffa0613          	addi	a2,s4,-1
    427c:	00d48023          	sb	a3,0(s1)
    4280:	00c98633          	add	a2,s3,a2
    4284:	10c4e863          	bltu	s1,a2,4394 <.L27>
    4288:	000027b7          	lui	a5,0x2
    428c:	413484b3          	sub	s1,s1,s3
    4290:	70f78793          	addi	a5,a5,1807 # 270f <.L52+0x43>
    4294:	00148c93          	addi	s9,s1,1
    4298:	0347cc63          	blt	a5,s4,42d0 <.L28>
    429c:	00812783          	lw	a5,8(sp)
    42a0:	001a1a13          	slli	s4,s4,0x1
    42a4:	0147d463          	bge	a5,s4,42ac <.L29>
    42a8:	00078a13          	mv	s4,a5

000042ac <.L29>:
    42ac:	00500513          	li	a0,5
    42b0:	02aa0533          	mul	a0,s4,a0
    42b4:	00d12623          	sw	a3,12(sp)
    42b8:	00350513          	addi	a0,a0,3
    42bc:	00000097          	auipc	ra,0x0
    42c0:	000080e7          	jalr	ra # 42bc <.L29+0x10>
    42c4:	00c12683          	lw	a3,12(sp)
    42c8:	00050d13          	mv	s10,a0
    42cc:	04051863          	bnez	a0,431c <.L30>

000042d0 <.L28>:
    42d0:	00200413          	li	s0,2

000042d4 <.L31>:
    42d4:	00412783          	lw	a5,4(sp)
    42d8:	52f99463          	bne	s3,a5,4800 <.L33>

000042dc <.L24>:
    42dc:	44c12083          	lw	ra,1100(sp)
    42e0:	00040513          	mv	a0,s0
    42e4:	44812403          	lw	s0,1096(sp)
    42e8:	44412483          	lw	s1,1092(sp)
    42ec:	44012903          	lw	s2,1088(sp)
    42f0:	43c12983          	lw	s3,1084(sp)
    42f4:	43812a03          	lw	s4,1080(sp)
    42f8:	43412a83          	lw	s5,1076(sp)
    42fc:	43012b03          	lw	s6,1072(sp)
    4300:	42c12b83          	lw	s7,1068(sp)
    4304:	42812c03          	lw	s8,1064(sp)
    4308:	42412c83          	lw	s9,1060(sp)
    430c:	42012d03          	lw	s10,1056(sp)
    4310:	41c12d83          	lw	s11,1052(sp)
    4314:	45010113          	addi	sp,sp,1104
    4318:	00008067          	ret

0000431c <.L30>:
    431c:	000c8613          	mv	a2,s9
    4320:	00098593          	mv	a1,s3
    4324:	00d12623          	sw	a3,12(sp)
    4328:	003a0913          	addi	s2,s4,3
    432c:	00000097          	auipc	ra,0x0
    4330:	000080e7          	jalr	ra # 432c <.L30+0x10>
    4334:	00012583          	lw	a1,0(sp)
    4338:	ffc97913          	andi	s2,s2,-4
    433c:	012d0933          	add	s2,s10,s2
    4340:	002c9c93          	slli	s9,s9,0x2
    4344:	000c8613          	mv	a2,s9
    4348:	00090513          	mv	a0,s2
    434c:	00000097          	auipc	ra,0x0
    4350:	000080e7          	jalr	ra # 434c <.L30+0x30>
    4354:	00412783          	lw	a5,4(sp)
    4358:	00c12683          	lw	a3,12(sp)
    435c:	00f98c63          	beq	s3,a5,4374 <.L32>
    4360:	00098513          	mv	a0,s3
    4364:	00d12023          	sw	a3,0(sp)
    4368:	00000097          	auipc	ra,0x0
    436c:	000080e7          	jalr	ra # 4368 <.L30+0x4c>
    4370:	00012683          	lw	a3,0(sp)

00004374 <.L32>:
    4374:	fffa0613          	addi	a2,s4,-1
    4378:	ffcc8c93          	addi	s9,s9,-4
    437c:	009d04b3          	add	s1,s10,s1
    4380:	00cd0633          	add	a2,s10,a2
    4384:	01990db3          	add	s11,s2,s9
    4388:	46c4f863          	bgeu	s1,a2,47f8 <.L92>
    438c:	01212023          	sw	s2,0(sp)
    4390:	000d0993          	mv	s3,s10

00004394 <.L27>:
    4394:	00900613          	li	a2,9
    4398:	44c68c63          	beq	a3,a2,47f0 <.L93>
    439c:	00000797          	auipc	a5,0x0
    43a0:	00078793          	mv	a5,a5
    43a4:	00d78633          	add	a2,a5,a3
    43a8:	00060803          	lb	a6,0(a2)
    43ac:	ffc00613          	li	a2,-4
    43b0:	24c80063          	beq	a6,a2,45f0 <.L34>
    43b4:	ffe00613          	li	a2,-2
    43b8:	20cc1263          	bne	s8,a2,45bc <.L35>
    43bc:	000aa603          	lw	a2,0(s5)
    43c0:	02000713          	li	a4,32
    43c4:	00900893          	li	a7,9

000043c8 <.L40>:
    43c8:	00064503          	lbu	a0,0(a2)
    43cc:	04051863          	bnez	a0,441c <.L36>

000043d0 <.L48>:
    43d0:	00caa023          	sw	a2,0(s5)

000043d4 <.L37>:
    43d4:	00000593          	li	a1,0
    43d8:	00000c13          	li	s8,0

000043dc <.L62>:
    43dc:	01058633          	add	a2,a1,a6
    43e0:	03800513          	li	a0,56
    43e4:	1ec56663          	bltu	a0,a2,45d0 <.L65>
    43e8:	00cb8633          	add	a2,s7,a2
    43ec:	10860503          	lb	a0,264(a2)
    43f0:	1eb51063          	bne	a0,a1,45d0 <.L65>
    43f4:	14460683          	lb	a3,324(a2)
    43f8:	40d00933          	neg	s2,a3
    43fc:	26d05463          	blez	a3,4664 <.L67>
    4400:	000b0463          	beqz	s6,4408 <.L68>
    4404:	fffb0b13          	addi	s6,s6,-1

00004408 <.L68>:
    4408:	008da223          	sw	s0,4(s11)
    440c:	ffe00c13          	li	s8,-2
    4410:	004d8d93          	addi	s11,s11,4

00004414 <.L26>:
    4414:	00148493          	addi	s1,s1,1
    4418:	e61ff06f          	j	4278 <.L25>

0000441c <.L36>:
    441c:	00160313          	addi	t1,a2,1
    4420:	00e50463          	beq	a0,a4,4428 <.L38>
    4424:	01151663          	bne	a0,a7,4430 <.L39>

00004428 <.L38>:
    4428:	00030613          	mv	a2,t1
    442c:	f9dff06f          	j	43c8 <.L40>

00004430 <.L39>:
    4430:	03f00e13          	li	t3,63
    4434:	00030593          	mv	a1,t1
    4438:	00050c13          	mv	s8,a0
    443c:	04ae6263          	bltu	t3,a0,4480 <.L41>
    4440:	04a8f863          	bgeu	a7,a0,4490 <.L98>
    4444:	ff650893          	addi	a7,a0,-10
    4448:	0ff8f893          	zext.b	a7,a7
    444c:	03500e13          	li	t3,53
    4450:	051e6063          	bltu	t3,a7,4490 <.L98>
    4454:	00000e17          	auipc	t3,0x0
    4458:	000e0e13          	mv	t3,t3
    445c:	00289893          	slli	a7,a7,0x2
    4460:	01c888b3          	add	a7,a7,t3
    4464:	0008a883          	lw	a7,0(a7)
    4468:	01c888b3          	add	a7,a7,t3
    446c:	00088067          	jr	a7

00004470 <.L50>:
    4470:	10500c13          	li	s8,261
    4474:	00400413          	li	s0,4

00004478 <.L42>:
    4478:	00baa023          	sw	a1,0(s5)
    447c:	0200006f          	j	449c <.L57>

00004480 <.L41>:
    4480:	06e00893          	li	a7,110
    4484:	01150a63          	beq	a0,a7,4498 <.L43>
    4488:	07c00893          	li	a7,124
    448c:	09150e63          	beq	a0,a7,4528 <.L54>

00004490 <.L98>:
    4490:	10100c13          	li	s8,257
    4494:	fe5ff06f          	j	4478 <.L42>

00004498 <.L43>:
    4498:	006aa023          	sw	t1,0(s5)

0000449c <.L57>:
    449c:	00000617          	auipc	a2,0x0
    44a0:	00060613          	mv	a2,a2
    44a4:	01860633          	add	a2,a2,s8
    44a8:	00060583          	lb	a1,0(a2) # 449c <.L57>
    44ac:	f31ff06f          	j	43dc <.L62>

000044b0 <.L49>:
    44b0:	fd050413          	addi	s0,a0,-48
    44b4:	00a00893          	li	a7,10
    44b8:	00900513          	li	a0,9

000044bc <.L58>:
    44bc:	0005c603          	lbu	a2,0(a1)
    44c0:	fd060713          	addi	a4,a2,-48
    44c4:	0ff77713          	zext.b	a4,a4
    44c8:	00e57663          	bgeu	a0,a4,44d4 <.L59>
    44cc:	10600c13          	li	s8,262
    44d0:	fa9ff06f          	j	4478 <.L42>

000044d4 <.L59>:
    44d4:	03140433          	mul	s0,s0,a7
    44d8:	00158593          	addi	a1,a1,1
    44dc:	fd040413          	addi	s0,s0,-48
    44e0:	00860433          	add	s0,a2,s0
    44e4:	fd9ff06f          	j	44bc <.L58>

000044e8 <.L46>:
    44e8:	00164883          	lbu	a7,1(a2)
    44ec:	03d00513          	li	a0,61
    44f0:	10100c13          	li	s8,257
    44f4:	f8a892e3          	bne	a7,a0,4478 <.L42>
    44f8:	00260593          	addi	a1,a2,2
    44fc:	10200c13          	li	s8,258
    4500:	00c00413          	li	s0,12
    4504:	f75ff06f          	j	4478 <.L42>

00004508 <.L56>:
    4508:	00164883          	lbu	a7,1(a2)
    450c:	03d00513          	li	a0,61
    4510:	02100c13          	li	s8,33
    4514:	f6a892e3          	bne	a7,a0,4478 <.L42>
    4518:	00260593          	addi	a1,a2,2
    451c:	10200c13          	li	s8,258
    4520:	00d00413          	li	s0,13
    4524:	f55ff06f          	j	4478 <.L42>

00004528 <.L54>:
    4528:	00164883          	lbu	a7,1(a2)
    452c:	f6a892e3          	bne	a7,a0,4490 <.L98>
    4530:	00260593          	addi	a1,a2,2
    4534:	f45ff06f          	j	4478 <.L42>

00004538 <.L47>:
    4538:	00164583          	lbu	a1,1(a2)
    453c:	03d00713          	li	a4,61
    4540:	00e59a63          	bne	a1,a4,4554 <.L60>
    4544:	00260593          	addi	a1,a2,2
    4548:	10300c13          	li	s8,259
    454c:	00a00413          	li	s0,10
    4550:	f29ff06f          	j	4478 <.L42>

00004554 <.L60>:
    4554:	006aa023          	sw	t1,0(s5)
    4558:	00800413          	li	s0,8
    455c:	10300c13          	li	s8,259
    4560:	f3dff06f          	j	449c <.L57>

00004564 <.L45>:
    4564:	00164503          	lbu	a0,1(a2)
    4568:	03d00713          	li	a4,61
    456c:	04e51263          	bne	a0,a4,45b0 <.L99>
    4570:	00260593          	addi	a1,a2,2
    4574:	10300c13          	li	s8,259
    4578:	00b00413          	li	s0,11
    457c:	efdff06f          	j	4478 <.L42>

00004580 <.L55>:
    4580:	10500c13          	li	s8,261
    4584:	00500413          	li	s0,5
    4588:	ef1ff06f          	j	4478 <.L42>

0000458c <.L52>:
    458c:	10400c13          	li	s8,260
    4590:	00600413          	li	s0,6
    4594:	ee5ff06f          	j	4478 <.L42>

00004598 <.L51>:
    4598:	10400c13          	li	s8,260
    459c:	00700413          	li	s0,7
    45a0:	ed9ff06f          	j	4478 <.L42>

000045a4 <.L53>:
    45a4:	10500c13          	li	s8,261
    45a8:	00300413          	li	s0,3
    45ac:	ecdff06f          	j	4478 <.L42>

000045b0 <.L99>:
    45b0:	10300c13          	li	s8,259
    45b4:	00900413          	li	s0,9
    45b8:	ec1ff06f          	j	4478 <.L42>

000045bc <.L35>:
    45bc:	e1805ce3          	blez	s8,43d4 <.L37>
    45c0:	10000613          	li	a2,256
    45c4:	eccc1ce3          	bne	s8,a2,449c <.L57>
    45c8:	10100c13          	li	s8,257
    45cc:	0400006f          	j	460c <.L63>

000045d0 <.L65>:
    45d0:	00db8633          	add	a2,s7,a3
    45d4:	18060903          	lb	s2,384(a2)
    45d8:	08091663          	bnez	s2,4664 <.L67>
    45dc:	00300613          	li	a2,3
    45e0:	02cb1663          	bne	s6,a2,460c <.L63>
    45e4:	1e0c0a63          	beqz	s8,47d8 <.L69>

000045e8 <.L101>:
    45e8:	ffe00c13          	li	s8,-2
    45ec:	0200006f          	j	460c <.L63>

000045f0 <.L34>:
    45f0:	00000617          	auipc	a2,0x0
    45f4:	00060613          	mv	a2,a2
    45f8:	00d60633          	add	a2,a2,a3
    45fc:	18060903          	lb	s2,384(a2) # 4770 <.L76>
    4600:	06091263          	bnez	s2,4664 <.L67>
    4604:	00300613          	li	a2,3
    4608:	1ccb0463          	beq	s6,a2,47d0 <.L70>

0000460c <.L63>:
    460c:	ffc00613          	li	a2,-4
    4610:	03800593          	li	a1,56
    4614:	00000517          	auipc	a0,0x0
    4618:	00050513          	mv	a0,a0
    461c:	00100813          	li	a6,1

00004620 <.L90>:
    4620:	00000797          	auipc	a5,0x0
    4624:	00078793          	mv	a5,a5
    4628:	00d786b3          	add	a3,a5,a3
    462c:	00068683          	lb	a3,0(a3)
    4630:	02c68063          	beq	a3,a2,4650 <.L88>
    4634:	00168693          	addi	a3,a3,1
    4638:	00d5ec63          	bltu	a1,a3,4650 <.L88>
    463c:	00d506b3          	add	a3,a0,a3
    4640:	10868883          	lb	a7,264(a3)
    4644:	01089663          	bne	a7,a6,4650 <.L88>
    4648:	14468683          	lb	a3,324(a3)
    464c:	18d04a63          	bgtz	a3,47e0 <.L89>

00004650 <.L88>:
    4650:	18998463          	beq	s3,s1,47d8 <.L69>
    4654:	fff48493          	addi	s1,s1,-1
    4658:	ffcd8d93          	addi	s11,s11,-4
    465c:	00048683          	lb	a3,0(s1)
    4660:	fc1ff06f          	j	4620 <.L90>

00004664 <.L67>:
    4664:	012b86b3          	add	a3,s7,s2
    4668:	19c68c83          	lb	s9,412(a3)
    466c:	00100693          	li	a3,1
    4670:	00b00613          	li	a2,11
    4674:	419686b3          	sub	a3,a3,s9
    4678:	00269693          	slli	a3,a3,0x2
    467c:	00dd86b3          	add	a3,s11,a3
    4680:	0006a503          	lw	a0,0(a3)
    4684:	ffe90693          	addi	a3,s2,-2
    4688:	02d66663          	bltu	a2,a3,46b4 <.L85>
    468c:	00000617          	auipc	a2,0x0
    4690:	00060613          	mv	a2,a2
    4694:	00269693          	slli	a3,a3,0x2
    4698:	00c686b3          	add	a3,a3,a2
    469c:	0006a683          	lw	a3,0(a3)
    46a0:	00c686b3          	add	a3,a3,a2
    46a4:	00068067          	jr	a3

000046a8 <.L84>:
    46a8:	000da683          	lw	a3,0(s11)
    46ac:	12068663          	beqz	a3,47d8 <.L69>
    46b0:	00daa223          	sw	a3,4(s5)

000046b4 <.L85>:
    46b4:	012b8933          	add	s2,s7,s2
    46b8:	1ac90603          	lb	a2,428(s2)
    46bc:	002c9693          	slli	a3,s9,0x2
    46c0:	40dd86b3          	sub	a3,s11,a3
    46c4:	ff060613          	addi	a2,a2,-16 # 467c <.L67+0x18>
    46c8:	00000797          	auipc	a5,0x0
    46cc:	00078793          	mv	a5,a5
    46d0:	00a6a223          	sw	a0,4(a3)
    46d4:	419484b3          	sub	s1,s1,s9
    46d8:	00468d93          	addi	s11,a3,4
    46dc:	00c786b3          	add	a3,a5,a2
    46e0:	00048583          	lb	a1,0(s1)
    46e4:	00068683          	lb	a3,0(a3)
    46e8:	03800513          	li	a0,56
    46ec:	00b686b3          	add	a3,a3,a1
    46f0:	0cd56a63          	bltu	a0,a3,47c4 <.L87>
    46f4:	00db86b3          	add	a3,s7,a3
    46f8:	10868503          	lb	a0,264(a3)
    46fc:	0cb51463          	bne	a0,a1,47c4 <.L87>
    4700:	14468683          	lb	a3,324(a3)
    4704:	d11ff06f          	j	4414 <.L26>

00004708 <.L83>:
    4708:	ff8da603          	lw	a2,-8(s11)
    470c:	ff0da583          	lw	a1,-16(s11)
    4710:	000da683          	lw	a3,0(s11)
    4714:	02c12023          	sw	a2,32(sp)
    4718:	00b12e23          	sw	a1,28(sp)
    471c:	02d12223          	sw	a3,36(sp)
    4720:	01c10613          	addi	a2,sp,28
    4724:	01000593          	li	a1,16
    4728:	00300513          	li	a0,3

0000472c <.L121>:
    472c:	00000097          	auipc	ra,0x0
    4730:	000080e7          	jalr	ra # 472c <.L121>
    4734:	f81ff06f          	j	46b4 <.L85>

00004738 <.L82>:
    4738:	000da603          	lw	a2,0(s11)
    473c:	ff8da583          	lw	a1,-8(s11)
    4740:	00f00513          	li	a0,15

00004744 <.L122>:
    4744:	00000097          	auipc	ra,0x0
    4748:	000080e7          	jalr	ra # 4744 <.L122>
    474c:	f69ff06f          	j	46b4 <.L85>

00004750 <.L81>:
    4750:	000da603          	lw	a2,0(s11)
    4754:	ff8da583          	lw	a1,-8(s11)
    4758:	00e00513          	li	a0,14
    475c:	fe9ff06f          	j	4744 <.L122>

00004760 <.L77>:
    4760:	000da603          	lw	a2,0(s11)
    4764:	ff8da583          	lw	a1,-8(s11)
    4768:	ffcda503          	lw	a0,-4(s11)
    476c:	fd9ff06f          	j	4744 <.L122>

00004770 <.L76>:
    4770:	000da683          	lw	a3,0(s11)
    4774:	01c10613          	addi	a2,sp,28
    4778:	00200593          	li	a1,2
    477c:	00d12e23          	sw	a3,28(sp)
    4780:	00100513          	li	a0,1
    4784:	fa9ff06f          	j	472c <.L121>

00004788 <.L75>:
    4788:	00000613          	li	a2,0
    478c:	00000593          	li	a1,0
    4790:	00000513          	li	a0,0
    4794:	f99ff06f          	j	472c <.L121>

00004798 <.L74>:
    4798:	00000613          	li	a2,0
    479c:	00100593          	li	a1,1
    47a0:	00000513          	li	a0,0
    47a4:	00000097          	auipc	ra,0x0
    47a8:	000080e7          	jalr	ra # 47a4 <.L74+0xc>
    47ac:	f00504e3          	beqz	a0,46b4 <.L85>
    47b0:	000da683          	lw	a3,0(s11)
    47b4:	00d52423          	sw	a3,8(a0) # 461c <.L63+0x10>
    47b8:	efdff06f          	j	46b4 <.L85>

000047bc <.L72>:
    47bc:	ffcda503          	lw	a0,-4(s11)
    47c0:	ef5ff06f          	j	46b4 <.L85>

000047c4 <.L87>:
    47c4:	00cb8633          	add	a2,s7,a2
    47c8:	1bc60683          	lb	a3,444(a2)
    47cc:	c49ff06f          	j	4414 <.L26>

000047d0 <.L70>:
    47d0:	e1804ce3          	bgtz	s8,45e8 <.L101>
    47d4:	e20c1ce3          	bnez	s8,460c <.L63>

000047d8 <.L69>:
    47d8:	00100413          	li	s0,1
    47dc:	af9ff06f          	j	42d4 <.L31>

000047e0 <.L89>:
    47e0:	008da223          	sw	s0,4(s11)
    47e4:	00300b13          	li	s6,3
    47e8:	004d8d93          	addi	s11,s11,4
    47ec:	c29ff06f          	j	4414 <.L26>

000047f0 <.L93>:
    47f0:	00000413          	li	s0,0
    47f4:	ae1ff06f          	j	42d4 <.L31>

000047f8 <.L92>:
    47f8:	000d0993          	mv	s3,s10
    47fc:	00100413          	li	s0,1

00004800 <.L33>:
    4800:	00098513          	mv	a0,s3
    4804:	00000097          	auipc	ra,0x0
    4808:	000080e7          	jalr	ra # 4804 <.L33+0x4>
    480c:	ad1ff06f          	j	42dc <.L24>

00004810 <__gettext_extract_plural>:
    4810:	fd010113          	addi	sp,sp,-48
    4814:	03212023          	sw	s2,32(sp)
    4818:	01312e23          	sw	s3,28(sp)
    481c:	02112623          	sw	ra,44(sp)
    4820:	02812423          	sw	s0,40(sp)
    4824:	02912223          	sw	s1,36(sp)
    4828:	00058993          	mv	s3,a1
    482c:	00060913          	mv	s2,a2
    4830:	0e050063          	beqz	a0,4910 <.L2>
    4834:	00000597          	auipc	a1,0x0
    4838:	00058593          	mv	a1,a1
    483c:	00050413          	mv	s0,a0
    4840:	00000097          	auipc	ra,0x0
    4844:	000080e7          	jalr	ra # 4840 <__gettext_extract_plural+0x30>
    4848:	00050493          	mv	s1,a0
    484c:	0c050263          	beqz	a0,4910 <.L2>
    4850:	00000597          	auipc	a1,0x0
    4854:	00058593          	mv	a1,a1
    4858:	00040513          	mv	a0,s0
    485c:	00000097          	auipc	ra,0x0
    4860:	000080e7          	jalr	ra # 485c <__gettext_extract_plural+0x4c>
    4864:	0a050663          	beqz	a0,4910 <.L2>
    4868:	00000797          	auipc	a5,0x0
    486c:	0007a783          	lw	a5,0(a5) # 4868 <__gettext_extract_plural+0x58>
    4870:	00950413          	addi	s0,a0,9
    4874:	000026b7          	lui	a3,0x2
    4878:	004787b3          	add	a5,a5,tp
    487c:	0007a603          	lw	a2,0(a5)

00004880 <.L3>:
    4880:	00044783          	lbu	a5,0(s0)
    4884:	08078663          	beqz	a5,4910 <.L2>
    4888:	00179713          	slli	a4,a5,0x1
    488c:	00e60733          	add	a4,a2,a4
    4890:	00075703          	lhu	a4,0(a4)
    4894:	00d77733          	and	a4,a4,a3
    4898:	06071863          	bnez	a4,4908 <.L5>
    489c:	fd078793          	addi	a5,a5,-48
    48a0:	0ff7f793          	zext.b	a5,a5
    48a4:	00900713          	li	a4,9
    48a8:	06f76463          	bltu	a4,a5,4910 <.L2>
    48ac:	00a00613          	li	a2,10
    48b0:	00410593          	addi	a1,sp,4
    48b4:	00040513          	mv	a0,s0
    48b8:	00000097          	auipc	ra,0x0
    48bc:	000080e7          	jalr	ra # 48b8 <.L3+0x38>
    48c0:	00412783          	lw	a5,4(sp)
    48c4:	04878663          	beq	a5,s0,4910 <.L2>
    48c8:	00a92023          	sw	a0,0(s2)
    48cc:	00748493          	addi	s1,s1,7
    48d0:	00810513          	addi	a0,sp,8
    48d4:	00912423          	sw	s1,8(sp)
    48d8:	00000097          	auipc	ra,0x0
    48dc:	000080e7          	jalr	ra # 48d8 <.L3+0x58>
    48e0:	02051863          	bnez	a0,4910 <.L2>
    48e4:	00c12783          	lw	a5,12(sp)
    48e8:	00f9a023          	sw	a5,0(s3)

000048ec <.L1>:
    48ec:	02c12083          	lw	ra,44(sp)
    48f0:	02812403          	lw	s0,40(sp)
    48f4:	02412483          	lw	s1,36(sp)
    48f8:	02012903          	lw	s2,32(sp)
    48fc:	01c12983          	lw	s3,28(sp)
    4900:	03010113          	addi	sp,sp,48
    4904:	00008067          	ret

00004908 <.L5>:
    4908:	00140413          	addi	s0,s0,1
    490c:	f75ff06f          	j	4880 <.L3>

00004910 <.L2>:
    4910:	00000797          	auipc	a5,0x0
    4914:	00078793          	mv	a5,a5
    4918:	00f9a023          	sw	a5,0(s3)
    491c:	00200793          	li	a5,2
    4920:	00f92023          	sw	a5,0(s2)
    4924:	fc9ff06f          	j	48ec <.L1>

00004928 <__hash_string>:
    4928:	10000637          	lui	a2,0x10000
    492c:	00050713          	mv	a4,a0
    4930:	f00005b7          	lui	a1,0xf0000
    4934:	00000513          	li	a0,0
    4938:	fff60613          	addi	a2,a2,-1 # fffffff <.L53+0xffb2213>

0000493c <.L2>:
    493c:	00074683          	lbu	a3,0(a4)
    4940:	00069463          	bnez	a3,4948 <.L4>
    4944:	00008067          	ret

00004948 <.L4>:
    4948:	00451793          	slli	a5,a0,0x4
    494c:	00f68533          	add	a0,a3,a5
    4950:	00b576b3          	and	a3,a0,a1
    4954:	00170713          	addi	a4,a4,1
    4958:	fe0682e3          	beqz	a3,493c <.L2>
    495c:	00c577b3          	and	a5,a0,a2
    4960:	0186d693          	srli	a3,a3,0x18
    4964:	00f6c533          	xor	a0,a3,a5
    4968:	fd5ff06f          	j	493c <.L2>

0000496c <_setjmp>:
    496c:	00000593          	li	a1,0
    4970:	0080006f          	j	4978 <__sigsetjmp>

00004974 <setjmp>:
    4974:	00100593          	li	a1,1

00004978 <__sigsetjmp>:
    4978:	00152023          	sw	ra,0(a0)
    497c:	00852223          	sw	s0,4(a0)
    4980:	00952423          	sw	s1,8(a0)
    4984:	01252623          	sw	s2,12(a0)
    4988:	01352823          	sw	s3,16(a0)
    498c:	01452a23          	sw	s4,20(a0)
    4990:	01552c23          	sw	s5,24(a0)
    4994:	01652e23          	sw	s6,28(a0)
    4998:	03752023          	sw	s7,32(a0)
    499c:	03852223          	sw	s8,36(a0)
    49a0:	03952423          	sw	s9,40(a0)
    49a4:	03a52623          	sw	s10,44(a0)
    49a8:	03b52823          	sw	s11,48(a0)
    49ac:	02252a23          	sw	sp,52(a0)
    49b0:	fbdff06f          	j	496c <_setjmp>

000049b4 <__sigjmp_save>:
    49b4:	ff010113          	addi	sp,sp,-16
    49b8:	00812423          	sw	s0,8(sp)
    49bc:	00112623          	sw	ra,12(sp)
    49c0:	00050413          	mv	s0,a0
    49c4:	00058e63          	beqz	a1,49e0 <.L2>
    49c8:	03c50613          	addi	a2,a0,60
    49cc:	00000593          	li	a1,0
    49d0:	00000513          	li	a0,0
    49d4:	00000097          	auipc	ra,0x0
    49d8:	000080e7          	jalr	ra # 49d4 <__sigjmp_save+0x20>
    49dc:	00153593          	seqz	a1,a0

000049e0 <.L2>:
    49e0:	00c12083          	lw	ra,12(sp)
    49e4:	02b42c23          	sw	a1,56(s0)
    49e8:	00812403          	lw	s0,8(sp)
    49ec:	00000513          	li	a0,0
    49f0:	01010113          	addi	sp,sp,16
    49f4:	00008067          	ret

000049f8 <raise>:
    49f8:	fe010113          	addi	sp,sp,-32
    49fc:	00112e23          	sw	ra,28(sp)
    4a00:	00a12623          	sw	a0,12(sp)
    4a04:	00000097          	auipc	ra,0x0
    4a08:	000080e7          	jalr	ra # 4a04 <raise+0xc>
    4a0c:	00c12583          	lw	a1,12(sp)
    4a10:	00000097          	auipc	ra,0x0
    4a14:	000080e7          	jalr	ra # 4a10 <raise+0x18>
    4a18:	00050c63          	beqz	a0,4a30 <.L1>
    4a1c:	00000797          	auipc	a5,0x0
    4a20:	0007a783          	lw	a5,0(a5) # 4a1c <raise+0x24>
    4a24:	004787b3          	add	a5,a5,tp
    4a28:	00a7a023          	sw	a0,0(a5)
    4a2c:	fff00513          	li	a0,-1

00004a30 <.L1>:
    4a30:	01c12083          	lw	ra,28(sp)
    4a34:	02010113          	addi	sp,sp,32
    4a38:	00008067          	ret

00004a3c <__sigprocmask>:
    4a3c:	ff010113          	addi	sp,sp,-16
    4a40:	00112623          	sw	ra,12(sp)
    4a44:	00000097          	auipc	ra,0x0
    4a48:	000080e7          	jalr	ra # 4a44 <__sigprocmask+0x8>
    4a4c:	00050c63          	beqz	a0,4a64 <.L1>
    4a50:	00000797          	auipc	a5,0x0
    4a54:	0007a783          	lw	a5,0(a5) # 4a50 <__sigprocmask+0x14>
    4a58:	004787b3          	add	a5,a5,tp
    4a5c:	00a7a023          	sw	a0,0(a5)
    4a60:	fff00513          	li	a0,-1

00004a64 <.L1>:
    4a64:	00c12083          	lw	ra,12(sp)
    4a68:	01010113          	addi	sp,sp,16
    4a6c:	00008067          	ret

00004a70 <bsearch>:
    4a70:	fd010113          	addi	sp,sp,-48
    4a74:	02812423          	sw	s0,40(sp)
    4a78:	01312e23          	sw	s3,28(sp)
    4a7c:	01412c23          	sw	s4,24(sp)
    4a80:	01512a23          	sw	s5,20(sp)
    4a84:	01612823          	sw	s6,16(sp)
    4a88:	01712623          	sw	s7,12(sp)
    4a8c:	02112623          	sw	ra,44(sp)
    4a90:	02912223          	sw	s1,36(sp)
    4a94:	03212023          	sw	s2,32(sp)
    4a98:	00050a13          	mv	s4,a0
    4a9c:	00058a93          	mv	s5,a1
    4aa0:	00060413          	mv	s0,a2
    4aa4:	00068b13          	mv	s6,a3
    4aa8:	00070b93          	mv	s7,a4
    4aac:	00000993          	li	s3,0

00004ab0 <.L2>:
    4ab0:	0289ec63          	bltu	s3,s0,4ae8 <.L5>
    4ab4:	00000913          	li	s2,0

00004ab8 <.L1>:
    4ab8:	02c12083          	lw	ra,44(sp)
    4abc:	02812403          	lw	s0,40(sp)
    4ac0:	02412483          	lw	s1,36(sp)
    4ac4:	01c12983          	lw	s3,28(sp)
    4ac8:	01812a03          	lw	s4,24(sp)
    4acc:	01412a83          	lw	s5,20(sp)
    4ad0:	01012b03          	lw	s6,16(sp)
    4ad4:	00c12b83          	lw	s7,12(sp)
    4ad8:	00090513          	mv	a0,s2
    4adc:	02012903          	lw	s2,32(sp)
    4ae0:	03010113          	addi	sp,sp,48
    4ae4:	00008067          	ret

00004ae8 <.L5>:
    4ae8:	008984b3          	add	s1,s3,s0
    4aec:	0014d493          	srli	s1,s1,0x1
    4af0:	03648933          	mul	s2,s1,s6
    4af4:	000a0513          	mv	a0,s4
    4af8:	012a8933          	add	s2,s5,s2
    4afc:	00090593          	mv	a1,s2
    4b00:	000b80e7          	jalr	s7 # 4270 <__gettextparse+0x6c>
    4b04:	00054863          	bltz	a0,4b14 <.L3>
    4b08:	fa0508e3          	beqz	a0,4ab8 <.L1>
    4b0c:	00148993          	addi	s3,s1,1
    4b10:	00040493          	mv	s1,s0

00004b14 <.L3>:
    4b14:	00048413          	mv	s0,s1
    4b18:	f99ff06f          	j	4ab0 <.L2>

00004b1c <__new_exitfn>:
    4b1c:	00000797          	auipc	a5,0x0
    4b20:	0007c783          	lbu	a5,0(a5) # 4b1c <__new_exitfn>
    4b24:	00078663          	beqz	a5,4b30 <.L2>
    4b28:	00000513          	li	a0,0
    4b2c:	00008067          	ret

00004b30 <.L2>:
    4b30:	ff010113          	addi	sp,sp,-16
    4b34:	00912223          	sw	s1,4(sp)
    4b38:	00052483          	lw	s1,0(a0)
    4b3c:	00812423          	sw	s0,8(sp)
    4b40:	00112623          	sw	ra,12(sp)
    4b44:	00050413          	mv	s0,a0
    4b48:	00048713          	mv	a4,s1
    4b4c:	00000793          	li	a5,0

00004b50 <.L4>:
    4b50:	02071663          	bnez	a4,4b7c <.L8>
    4b54:	0a079263          	bnez	a5,4bf8 <.L11>
    4b58:	00000697          	auipc	a3,0x0
    4b5c:	00068693          	mv	a3,a3
    4b60:	07000613          	li	a2,112
    4b64:	00000597          	auipc	a1,0x0
    4b68:	00058593          	mv	a1,a1
    4b6c:	00000517          	auipc	a0,0x0
    4b70:	00050513          	mv	a0,a0
    4b74:	00000097          	auipc	ra,0x0
    4b78:	000080e7          	jalr	ra # 4b74 <.L4+0x24>

00004b7c <.L8>:
    4b7c:	00472683          	lw	a3,4(a4)

00004b80 <.L5>:
    4b80:	00069a63          	bnez	a3,4b94 <.L7>
    4b84:	00072223          	sw	zero,4(a4)
    4b88:	00070793          	mv	a5,a4
    4b8c:	00072703          	lw	a4,0(a4)
    4b90:	fc1ff06f          	j	4b50 <.L4>

00004b94 <.L7>:
    4b94:	fff68593          	addi	a1,a3,-1 # 4b57 <.L4+0x7>
    4b98:	00459613          	slli	a2,a1,0x4
    4b9c:	00c70633          	add	a2,a4,a2
    4ba0:	00862603          	lw	a2,8(a2)
    4ba4:	02061263          	bnez	a2,4bc8 <.L6>
    4ba8:	00058693          	mv	a3,a1
    4bac:	fd5ff06f          	j	4b80 <.L5>

00004bb0 <.L21>:
    4bb0:	00469513          	slli	a0,a3,0x4
    4bb4:	00850513          	addi	a0,a0,8 # 4b74 <.L4+0x24>
    4bb8:	00168693          	addi	a3,a3,1
    4bbc:	00a70533          	add	a0,a4,a0
    4bc0:	00d72223          	sw	a3,4(a4)
    4bc4:	0400006f          	j	4c04 <.L13>

00004bc8 <.L6>:
    4bc8:	02000613          	li	a2,32
    4bcc:	fec692e3          	bne	a3,a2,4bb0 <.L21>
    4bd0:	02079463          	bnez	a5,4bf8 <.L11>
    4bd4:	20800593          	li	a1,520
    4bd8:	00100513          	li	a0,1
    4bdc:	00000097          	auipc	ra,0x0
    4be0:	000080e7          	jalr	ra # 4bdc <.L6+0x14>
    4be4:	00050793          	mv	a5,a0
    4be8:	00000513          	li	a0,0
    4bec:	04078263          	beqz	a5,4c30 <.L1>
    4bf0:	0097a023          	sw	s1,0(a5)
    4bf4:	00f42023          	sw	a5,0(s0)

00004bf8 <.L11>:
    4bf8:	00100713          	li	a4,1
    4bfc:	00878513          	addi	a0,a5,8
    4c00:	00e7a223          	sw	a4,4(a5)

00004c04 <.L13>:
    4c04:	00000717          	auipc	a4,0x0
    4c08:	00070713          	mv	a4,a4
    4c0c:	00100793          	li	a5,1
    4c10:	00f52023          	sw	a5,0(a0)
    4c14:	00072783          	lw	a5,0(a4) # 4c04 <.L13>
    4c18:	00472603          	lw	a2,4(a4)
    4c1c:	00178693          	addi	a3,a5,1
    4c20:	00f6b7b3          	sltu	a5,a3,a5
    4c24:	00c787b3          	add	a5,a5,a2
    4c28:	00d72023          	sw	a3,0(a4)
    4c2c:	00f72223          	sw	a5,4(a4)

00004c30 <.L1>:
    4c30:	00c12083          	lw	ra,12(sp)
    4c34:	00812403          	lw	s0,8(sp)
    4c38:	00412483          	lw	s1,4(sp)
    4c3c:	01010113          	addi	sp,sp,16
    4c40:	00008067          	ret

00004c44 <__internal_atexit>:
    4c44:	fe010113          	addi	sp,sp,-32
    4c48:	00112e23          	sw	ra,28(sp)
    4c4c:	00812c23          	sw	s0,24(sp)
    4c50:	00912a23          	sw	s1,20(sp)
    4c54:	01212823          	sw	s2,16(sp)
    4c58:	01312623          	sw	s3,12(sp)
    4c5c:	01412423          	sw	s4,8(sp)
    4c60:	02051463          	bnez	a0,4c88 <.L26>
    4c64:	00000697          	auipc	a3,0x0
    4c68:	00068693          	mv	a3,a3
    4c6c:	02900613          	li	a2,41
    4c70:	00000597          	auipc	a1,0x0
    4c74:	00058593          	mv	a1,a1
    4c78:	00000517          	auipc	a0,0x0
    4c7c:	00050513          	mv	a0,a0
    4c80:	00000097          	auipc	ra,0x0
    4c84:	000080e7          	jalr	ra # 4c80 <__internal_atexit+0x3c>

00004c88 <.L26>:
    4c88:	00000417          	auipc	s0,0x0
    4c8c:	00040413          	mv	s0,s0
    4c90:	00060913          	mv	s2,a2
    4c94:	00050493          	mv	s1,a0
    4c98:	00058993          	mv	s3,a1
    4c9c:	00068a13          	mv	s4,a3
    4ca0:	00100713          	li	a4,1
    4ca4:	00840613          	addi	a2,s0,8 # 4c90 <.L26+0x8>

00004ca8 <.L1^B1>:
    4ca8:	100627af          	lr.w	a5,(a2)
    4cac:	00079663          	bnez	a5,4cb8 <.L1^B2>
    4cb0:	1ce626af          	sc.w.aq	a3,a4,(a2)
    4cb4:	fe069ae3          	bnez	a3,4ca8 <.L1^B1>

00004cb8 <.L1^B2>:
    4cb8:	00078863          	beqz	a5,4cc8 <.L27>
    4cbc:	00060513          	mv	a0,a2
    4cc0:	00000097          	auipc	ra,0x0
    4cc4:	000080e7          	jalr	ra # 4cc0 <.L1^B2+0x8>

00004cc8 <.L27>:
    4cc8:	000a0513          	mv	a0,s4
    4ccc:	00000097          	auipc	ra,0x0
    4cd0:	000080e7          	jalr	ra # 4ccc <.L27+0x4>
    4cd4:	02051863          	bnez	a0,4d04 <.L28>
    4cd8:	00840793          	addi	a5,s0,8
    4cdc:	0f50000f          	fence	iorw,ow
    4ce0:	08a7a52f          	amoswap.w	a0,a0,(a5)
    4ce4:	00100793          	li	a5,1
    4ce8:	00a7da63          	bge	a5,a0,4cfc <.L29>
    4cec:	00000517          	auipc	a0,0x0
    4cf0:	00050513          	mv	a0,a0
    4cf4:	00000097          	auipc	ra,0x0
    4cf8:	000080e7          	jalr	ra # 4cf4 <.L27+0x2c>

00004cfc <.L29>:
    4cfc:	fff00513          	li	a0,-1
    4d00:	0340006f          	j	4d34 <.L25>

00004d04 <.L28>:
    4d04:	00400793          	li	a5,4
    4d08:	00f52023          	sw	a5,0(a0) # 4cec <.L27+0x24>
    4d0c:	00952223          	sw	s1,4(a0)
    4d10:	01352423          	sw	s3,8(a0)
    4d14:	01252623          	sw	s2,12(a0)
    4d18:	00000793          	li	a5,0
    4d1c:	00840713          	addi	a4,s0,8
    4d20:	0f50000f          	fence	iorw,ow
    4d24:	08f727af          	amoswap.w	a5,a5,(a4)
    4d28:	00100713          	li	a4,1
    4d2c:	02f74463          	blt	a4,a5,4d54 <.L30>

00004d30 <.L32>:
    4d30:	00000513          	li	a0,0

00004d34 <.L25>:
    4d34:	01c12083          	lw	ra,28(sp)
    4d38:	01812403          	lw	s0,24(sp)
    4d3c:	01412483          	lw	s1,20(sp)
    4d40:	01012903          	lw	s2,16(sp)
    4d44:	00c12983          	lw	s3,12(sp)
    4d48:	00812a03          	lw	s4,8(sp)
    4d4c:	02010113          	addi	sp,sp,32
    4d50:	00008067          	ret

00004d54 <.L30>:
    4d54:	00000517          	auipc	a0,0x0
    4d58:	00050513          	mv	a0,a0
    4d5c:	00000097          	auipc	ra,0x0
    4d60:	000080e7          	jalr	ra # 4d5c <.L30+0x8>
    4d64:	fcdff06f          	j	4d30 <.L32>

00004d68 <__cxa_atexit>:
    4d68:	00000697          	auipc	a3,0x0
    4d6c:	00068693          	mv	a3,a3
    4d70:	00000317          	auipc	t1,0x0
    4d74:	00030067          	jr	t1 # 4d70 <__cxa_atexit+0x8>

00004d78 <__run_exit_handlers>:
    4d78:	fb010113          	addi	sp,sp,-80
    4d7c:	03312e23          	sw	s3,60(sp)
    4d80:	03412c23          	sw	s4,56(sp)
    4d84:	03512a23          	sw	s5,52(sp)
    4d88:	04112623          	sw	ra,76(sp)
    4d8c:	04812423          	sw	s0,72(sp)
    4d90:	04912223          	sw	s1,68(sp)
    4d94:	05212023          	sw	s2,64(sp)
    4d98:	03612823          	sw	s6,48(sp)
    4d9c:	03712623          	sw	s7,44(sp)
    4da0:	03812423          	sw	s8,40(sp)
    4da4:	03912223          	sw	s9,36(sp)
    4da8:	03a12023          	sw	s10,32(sp)
    4dac:	01b12e23          	sw	s11,28(sp)
    4db0:	00000797          	auipc	a5,0x0
    4db4:	0007a783          	lw	a5,0(a5) # 4db0 <__run_exit_handlers+0x38>
    4db8:	00050993          	mv	s3,a0
    4dbc:	00058a13          	mv	s4,a1
    4dc0:	00060a93          	mv	s5,a2
    4dc4:	00078663          	beqz	a5,4dd0 <.L2>
    4dc8:	00068463          	beqz	a3,4dd0 <.L2>
    4dcc:	000780e7          	jalr	a5

00004dd0 <.L2>:
    4dd0:	00000517          	auipc	a0,0x0
    4dd4:	00052503          	lw	a0,0(a0) # 4dd0 <.L2>
    4dd8:	00100713          	li	a4,1

00004ddc <.L1^B1>:
    4ddc:	100527af          	lr.w	a5,(a0)
    4de0:	00079663          	bnez	a5,4dec <.L1^B2>
    4de4:	1ce526af          	sc.w.aq	a3,a4,(a0)
    4de8:	fe069ae3          	bnez	a3,4ddc <.L1^B1>

00004dec <.L1^B2>:
    4dec:	00050413          	mv	s0,a0
    4df0:	00078663          	beqz	a5,4dfc <.L3>
    4df4:	00000097          	auipc	ra,0x0
    4df8:	000080e7          	jalr	ra # 4df4 <.L1^B2+0x8>

00004dfc <.L3>:
    4dfc:	00300b93          	li	s7,3
    4e00:	00400c13          	li	s8,4
    4e04:	00200c93          	li	s9,2

00004e08 <.L17>:
    4e08:	000a2483          	lw	s1,0(s4)
    4e0c:	02048863          	beqz	s1,4e3c <.L42>
    4e10:	00000b13          	li	s6,0
    4e14:	00100913          	li	s2,1

00004e18 <.L9>:
    4e18:	0044a783          	lw	a5,4(s1)
    4e1c:	04079c63          	bnez	a5,4e74 <.L16>
    4e20:	0004a783          	lw	a5,0(s1)
    4e24:	00fa2023          	sw	a5,0(s4)
    4e28:	fe0780e3          	beqz	a5,4e08 <.L17>
    4e2c:	00048513          	mv	a0,s1
    4e30:	00000097          	auipc	ra,0x0
    4e34:	000080e7          	jalr	ra # 4e30 <.L9+0x18>
    4e38:	fd1ff06f          	j	4e08 <.L17>

00004e3c <.L42>:
    4e3c:	00100793          	li	a5,1
    4e40:	00000717          	auipc	a4,0x0
    4e44:	00f70023          	sb	a5,0(a4) # 4e40 <.L42+0x4>
    4e48:	0f50000f          	fence	iorw,ow
    4e4c:	089424af          	amoswap.w	s1,s1,(s0)
    4e50:	0097da63          	bge	a5,s1,4e64 <.L6>
    4e54:	00000517          	auipc	a0,0x0
    4e58:	00052503          	lw	a0,0(a0) # 4e54 <.L42+0x18>
    4e5c:	00000097          	auipc	ra,0x0
    4e60:	000080e7          	jalr	ra # 4e5c <.L42+0x20>

00004e64 <.L6>:
    4e64:	100a9463          	bnez	s5,4f6c <.L22>

00004e68 <.L21>:
    4e68:	00098513          	mv	a0,s3
    4e6c:	00000097          	auipc	ra,0x0
    4e70:	000080e7          	jalr	ra # 4e6c <.L21+0x4>

00004e74 <.L16>:
    4e74:	fff78713          	addi	a4,a5,-1
    4e78:	00479793          	slli	a5,a5,0x4
    4e7c:	00f487b3          	add	a5,s1,a5
    4e80:	00e4a223          	sw	a4,4(s1)
    4e84:	ff87a703          	lw	a4,-8(a5)
    4e88:	07770663          	beq	a4,s7,4ef4 <.L7>
    4e8c:	09870a63          	beq	a4,s8,4f20 <.L8>
    4e90:	f99714e3          	bne	a4,s9,4e18 <.L9>
    4e94:	ffc7ad03          	lw	s10,-4(a5)
    4e98:	0007a583          	lw	a1,0(a5)
    4e9c:	000b0793          	mv	a5,s6
    4ea0:	0f50000f          	fence	iorw,ow
    4ea4:	08f427af          	amoswap.w	a5,a5,(s0)
    4ea8:	00f95e63          	bge	s2,a5,4ec4 <.L10>
    4eac:	00000517          	auipc	a0,0x0
    4eb0:	00052503          	lw	a0,0(a0) # 4eac <.L16+0x38>
    4eb4:	00b12623          	sw	a1,12(sp)
    4eb8:	00000097          	auipc	ra,0x0
    4ebc:	000080e7          	jalr	ra # 4eb8 <.L16+0x44>
    4ec0:	00c12583          	lw	a1,12(sp)

00004ec4 <.L10>:
    4ec4:	00098513          	mv	a0,s3

00004ec8 <.L44>:
    4ec8:	000d00e7          	jalr	s10

00004ecc <.L1^B3>:
    4ecc:	100427af          	lr.w	a5,(s0)
    4ed0:	00079663          	bnez	a5,4edc <.L1^B4>
    4ed4:	1d24272f          	sc.w.aq	a4,s2,(s0)
    4ed8:	fe071ae3          	bnez	a4,4ecc <.L1^B3>

00004edc <.L1^B4>:
    4edc:	f2078ee3          	beqz	a5,4e18 <.L9>
    4ee0:	00000517          	auipc	a0,0x0
    4ee4:	00052503          	lw	a0,0(a0) # 4ee0 <.L1^B4+0x4>
    4ee8:	00000097          	auipc	ra,0x0
    4eec:	000080e7          	jalr	ra # 4ee8 <.L1^B4+0xc>
    4ef0:	f29ff06f          	j	4e18 <.L9>

00004ef4 <.L7>:
    4ef4:	ffc7ad03          	lw	s10,-4(a5)
    4ef8:	000b0793          	mv	a5,s6
    4efc:	0f50000f          	fence	iorw,ow
    4f00:	08f427af          	amoswap.w	a5,a5,(s0)
    4f04:	00f95a63          	bge	s2,a5,4f18 <.L13>
    4f08:	00000517          	auipc	a0,0x0
    4f0c:	00052503          	lw	a0,0(a0) # 4f08 <.L7+0x14>
    4f10:	00000097          	auipc	ra,0x0
    4f14:	000080e7          	jalr	ra # 4f10 <.L7+0x1c>

00004f18 <.L13>:
    4f18:	000d00e7          	jalr	s10
    4f1c:	fb1ff06f          	j	4ecc <.L1^B3>

00004f20 <.L8>:
    4f20:	ffc7ad03          	lw	s10,-4(a5)
    4f24:	0007ad83          	lw	s11,0(a5)
    4f28:	fe07ac23          	sw	zero,-8(a5)
    4f2c:	000b0793          	mv	a5,s6
    4f30:	0f50000f          	fence	iorw,ow
    4f34:	08f427af          	amoswap.w	a5,a5,(s0)
    4f38:	00f95a63          	bge	s2,a5,4f4c <.L15>
    4f3c:	00000517          	auipc	a0,0x0
    4f40:	00052503          	lw	a0,0(a0) # 4f3c <.L8+0x1c>
    4f44:	00000097          	auipc	ra,0x0
    4f48:	000080e7          	jalr	ra # 4f44 <.L8+0x24>

00004f4c <.L15>:
    4f4c:	00098593          	mv	a1,s3
    4f50:	000d8513          	mv	a0,s11
    4f54:	f75ff06f          	j	4ec8 <.L44>

00004f58 <.L20>:
    4f58:	00042783          	lw	a5,0(s0)
    4f5c:	00440413          	addi	s0,s0,4
    4f60:	000780e7          	jalr	a5

00004f64 <.L19>:
    4f64:	fe946ae3          	bltu	s0,s1,4f58 <.L20>
    4f68:	f01ff06f          	j	4e68 <.L21>

00004f6c <.L22>:
    4f6c:	00000417          	auipc	s0,0x0
    4f70:	00042403          	lw	s0,0(s0) # 4f6c <.L22>
    4f74:	00000497          	auipc	s1,0x0
    4f78:	0004a483          	lw	s1,0(s1) # 4f74 <.L22+0x8>
    4f7c:	fe9ff06f          	j	4f64 <.L19>

00004f80 <exit>:
    4f80:	ff010113          	addi	sp,sp,-16
    4f84:	00100693          	li	a3,1
    4f88:	00100613          	li	a2,1
    4f8c:	00000597          	auipc	a1,0x0
    4f90:	00058593          	mv	a1,a1
    4f94:	00112623          	sw	ra,12(sp)
    4f98:	00000097          	auipc	ra,0x0
    4f9c:	000080e7          	jalr	ra # 4f98 <exit+0x18>

00004fa0 <getenv>:
    4fa0:	fe010113          	addi	sp,sp,-32
    4fa4:	00000797          	auipc	a5,0x0
    4fa8:	0007a783          	lw	a5,0(a5) # 4fa4 <getenv+0x4>
    4fac:	00812c23          	sw	s0,24(sp)
    4fb0:	0007a403          	lw	s0,0(a5)
    4fb4:	00112e23          	sw	ra,28(sp)
    4fb8:	00912a23          	sw	s1,20(sp)
    4fbc:	01212823          	sw	s2,16(sp)
    4fc0:	01312623          	sw	s3,12(sp)
    4fc4:	01412423          	sw	s4,8(sp)
    4fc8:	01512223          	sw	s5,4(sp)
    4fcc:	01612023          	sw	s6,0(sp)
    4fd0:	04040c63          	beqz	s0,5028 <.L1>
    4fd4:	00054783          	lbu	a5,0(a0)
    4fd8:	00050913          	mv	s2,a0
    4fdc:	0e078c63          	beqz	a5,50d4 <.L10>
    4fe0:	00154703          	lbu	a4,1(a0)
    4fe4:	06071c63          	bnez	a4,505c <.L3>
    4fe8:	00004737          	lui	a4,0x4
    4fec:	d0070713          	addi	a4,a4,-768 # 3d00 <.L30>
    4ff0:	00e7e7b3          	or	a5,a5,a4
    4ff4:	01079793          	slli	a5,a5,0x10
    4ff8:	4107d793          	srai	a5,a5,0x10
    4ffc:	00040693          	mv	a3,s0

00005000 <.L4>:
    5000:	0006a403          	lw	s0,0(a3) # 4d68 <__cxa_atexit>
    5004:	02040263          	beqz	s0,5028 <.L1>
    5008:	00144703          	lbu	a4,1(s0)
    500c:	00044603          	lbu	a2,0(s0)
    5010:	00871713          	slli	a4,a4,0x8
    5014:	00c76733          	or	a4,a4,a2
    5018:	01071713          	slli	a4,a4,0x10
    501c:	41075713          	srai	a4,a4,0x10
    5020:	02e79a63          	bne	a5,a4,5054 <.L5>
    5024:	00240413          	addi	s0,s0,2

00005028 <.L1>:
    5028:	01c12083          	lw	ra,28(sp)
    502c:	00040513          	mv	a0,s0
    5030:	01812403          	lw	s0,24(sp)
    5034:	01412483          	lw	s1,20(sp)
    5038:	01012903          	lw	s2,16(sp)
    503c:	00c12983          	lw	s3,12(sp)
    5040:	00812a03          	lw	s4,8(sp)
    5044:	00412a83          	lw	s5,4(sp)
    5048:	00012b03          	lw	s6,0(sp)
    504c:	02010113          	addi	sp,sp,32
    5050:	00008067          	ret

00005054 <.L5>:
    5054:	00468693          	addi	a3,a3,4
    5058:	fa9ff06f          	j	5000 <.L4>

0000505c <.L3>:
    505c:	00871713          	slli	a4,a4,0x8
    5060:	00f769b3          	or	s3,a4,a5
    5064:	00000097          	auipc	ra,0x0
    5068:	000080e7          	jalr	ra # 5064 <.L3+0x8>
    506c:	00050493          	mv	s1,a0
    5070:	ffe50a93          	addi	s5,a0,-2
    5074:	00290913          	addi	s2,s2,2
    5078:	00040a13          	mv	s4,s0
    507c:	03d00b13          	li	s6,61

00005080 <.L7>:
    5080:	000a2403          	lw	s0,0(s4)
    5084:	fa0402e3          	beqz	s0,5028 <.L1>
    5088:	00144783          	lbu	a5,1(s0)
    508c:	00044703          	lbu	a4,0(s0)
    5090:	00879793          	slli	a5,a5,0x8
    5094:	00e7e7b3          	or	a5,a5,a4
    5098:	02f99a63          	bne	s3,a5,50cc <.L8>
    509c:	000a8613          	mv	a2,s5
    50a0:	00090593          	mv	a1,s2
    50a4:	00240513          	addi	a0,s0,2
    50a8:	00000097          	auipc	ra,0x0
    50ac:	000080e7          	jalr	ra # 50a8 <.L7+0x28>
    50b0:	00051e63          	bnez	a0,50cc <.L8>
    50b4:	009407b3          	add	a5,s0,s1
    50b8:	0007c783          	lbu	a5,0(a5)
    50bc:	01679863          	bne	a5,s6,50cc <.L8>
    50c0:	00148493          	addi	s1,s1,1
    50c4:	00940433          	add	s0,s0,s1
    50c8:	f61ff06f          	j	5028 <.L1>

000050cc <.L8>:
    50cc:	004a0a13          	addi	s4,s4,4
    50d0:	fb1ff06f          	j	5080 <.L7>

000050d4 <.L10>:
    50d4:	00000413          	li	s0,0
    50d8:	f51ff06f          	j	5028 <.L1>

000050dc <msort_with_tmp>:
    50dc:	00100793          	li	a5,1
    50e0:	2cc7fa63          	bgeu	a5,a2,53b4 <.L1>
    50e4:	00052783          	lw	a5,0(a0)
    50e8:	fc010113          	addi	sp,sp,-64
    50ec:	01a12823          	sw	s10,16(sp)
    50f0:	00165d13          	srli	s10,a2,0x1
    50f4:	02fd07b3          	mul	a5,s10,a5
    50f8:	03612023          	sw	s6,32(sp)
    50fc:	01912a23          	sw	s9,20(sp)
    5100:	00060b13          	mv	s6,a2
    5104:	41a60cb3          	sub	s9,a2,s10
    5108:	000d0613          	mv	a2,s10
    510c:	02112e23          	sw	ra,60(sp)
    5110:	02812c23          	sw	s0,56(sp)
    5114:	03312623          	sw	s3,44(sp)
    5118:	03412423          	sw	s4,40(sp)
    511c:	03512223          	sw	s5,36(sp)
    5120:	00050a13          	mv	s4,a0
    5124:	01712e23          	sw	s7,28(sp)
    5128:	01812c23          	sw	s8,24(sp)
    512c:	01b12623          	sw	s11,12(sp)
    5130:	00058a93          	mv	s5,a1
    5134:	00f58db3          	add	s11,a1,a5
    5138:	02912a23          	sw	s1,52(sp)
    513c:	03212823          	sw	s2,48(sp)
    5140:	00000097          	auipc	ra,0x0
    5144:	000080e7          	jalr	ra # 5140 <msort_with_tmp+0x64>
    5148:	000c8613          	mv	a2,s9
    514c:	000d8593          	mv	a1,s11
    5150:	000a0513          	mv	a0,s4
    5154:	00000097          	auipc	ra,0x0
    5158:	000080e7          	jalr	ra # 5154 <msort_with_tmp+0x78>
    515c:	004a2783          	lw	a5,4(s4)
    5160:	00200713          	li	a4,2
    5164:	010a2403          	lw	s0,16(s4)
    5168:	000a2983          	lw	s3,0(s4)
    516c:	008a2b83          	lw	s7,8(s4)
    5170:	00ca2c03          	lw	s8,12(s4)
    5174:	06e78a63          	beq	a5,a4,51e8 <.L3>
    5178:	02f76663          	bltu	a4,a5,51a4 <.L4>
    517c:	000a8493          	mv	s1,s5
    5180:	16079a63          	bnez	a5,52f4 <.L19>

00005184 <.L15>:
    5184:	0a0c9063          	bnez	s9,5224 <.L12>

00005188 <.L9>:
    5188:	03a98633          	mul	a2,s3,s10
    518c:	00048593          	mv	a1,s1
    5190:	00040513          	mv	a0,s0
    5194:	00000c93          	li	s9,0
    5198:	00000097          	auipc	ra,0x0
    519c:	000080e7          	jalr	ra # 5198 <.L9+0x10>
    51a0:	0b40006f          	j	5254 <.L28>

000051a4 <.L4>:
    51a4:	00300713          	li	a4,3
    51a8:	000a8493          	mv	s1,s5
    51ac:	1ce79463          	bne	a5,a4,5374 <.L54>

000051b0 <.L25>:
    51b0:	fc0c8ce3          	beqz	s9,5188 <.L9>
    51b4:	000da583          	lw	a1,0(s11)
    51b8:	0004a503          	lw	a0,0(s1)
    51bc:	000c0613          	mv	a2,s8
    51c0:	000b80e7          	jalr	s7
    51c4:	00440713          	addi	a4,s0,4
    51c8:	16a04c63          	bgtz	a0,5340 <.L24>
    51cc:	0004a783          	lw	a5,0(s1)
    51d0:	fffd0d13          	addi	s10,s10,-1
    51d4:	00448493          	addi	s1,s1,4
    51d8:	00f42023          	sw	a5,0(s0)
    51dc:	00070413          	mv	s0,a4
    51e0:	fc0d18e3          	bnez	s10,51b0 <.L25>
    51e4:	0700006f          	j	5254 <.L28>

000051e8 <.L3>:
    51e8:	000a8493          	mv	s1,s5

000051ec <.L53>:
    51ec:	f80c8ee3          	beqz	s9,5188 <.L9>
    51f0:	000c0613          	mv	a2,s8
    51f4:	000d8593          	mv	a1,s11
    51f8:	00048513          	mv	a0,s1
    51fc:	00040913          	mv	s2,s0
    5200:	01340433          	add	s0,s0,s3
    5204:	000b80e7          	jalr	s7
    5208:	10a04a63          	bgtz	a0,531c <.L20>
    520c:	00048793          	mv	a5,s1
    5210:	fffd0d13          	addi	s10,s10,-1
    5214:	013484b3          	add	s1,s1,s3

00005218 <.L22>:
    5218:	10896a63          	bltu	s2,s0,532c <.L23>
    521c:	fc0d18e3          	bnez	s10,51ec <.L53>
    5220:	0340006f          	j	5254 <.L28>

00005224 <.L12>:
    5224:	000c0613          	mv	a2,s8
    5228:	000d8593          	mv	a1,s11
    522c:	00048513          	mv	a0,s1
    5230:	000b80e7          	jalr	s7
    5234:	00440713          	addi	a4,s0,4
    5238:	06a04663          	bgtz	a0,52a4 <.L14>
    523c:	0004a783          	lw	a5,0(s1)
    5240:	fffd0d13          	addi	s10,s10,-1
    5244:	00448493          	addi	s1,s1,4
    5248:	00f42023          	sw	a5,0(s0)
    524c:	00070413          	mv	s0,a4
    5250:	f20d1ae3          	bnez	s10,5184 <.L15>

00005254 <.L28>:
    5254:	419b0633          	sub	a2,s6,s9
    5258:	03360633          	mul	a2,a2,s3
    525c:	03812403          	lw	s0,56(sp)
    5260:	010a2583          	lw	a1,16(s4)
    5264:	03c12083          	lw	ra,60(sp)
    5268:	03412483          	lw	s1,52(sp)
    526c:	03012903          	lw	s2,48(sp)
    5270:	02c12983          	lw	s3,44(sp)
    5274:	02812a03          	lw	s4,40(sp)
    5278:	02012b03          	lw	s6,32(sp)
    527c:	01c12b83          	lw	s7,28(sp)
    5280:	01812c03          	lw	s8,24(sp)
    5284:	01412c83          	lw	s9,20(sp)
    5288:	01012d03          	lw	s10,16(sp)
    528c:	00c12d83          	lw	s11,12(sp)
    5290:	000a8513          	mv	a0,s5
    5294:	02412a83          	lw	s5,36(sp)
    5298:	04010113          	addi	sp,sp,64
    529c:	00000317          	auipc	t1,0x0
    52a0:	00030067          	jr	t1 # 529c <.L28+0x48>

000052a4 <.L14>:
    52a4:	000da783          	lw	a5,0(s11)
    52a8:	fffc8c93          	addi	s9,s9,-1
    52ac:	004d8d93          	addi	s11,s11,4
    52b0:	00f42023          	sw	a5,0(s0)
    52b4:	00070413          	mv	s0,a4
    52b8:	ecdff06f          	j	5184 <.L15>

000052bc <.L11>:
    52bc:	000c0613          	mv	a2,s8
    52c0:	000d8593          	mv	a1,s11
    52c4:	00048513          	mv	a0,s1
    52c8:	000b80e7          	jalr	s7
    52cc:	00840693          	addi	a3,s0,8
    52d0:	02a04663          	bgtz	a0,52fc <.L18>
    52d4:	0004a703          	lw	a4,0(s1)
    52d8:	0044a783          	lw	a5,4(s1)
    52dc:	fffd0d13          	addi	s10,s10,-1
    52e0:	00e42023          	sw	a4,0(s0)
    52e4:	00f42223          	sw	a5,4(s0)
    52e8:	00848493          	addi	s1,s1,8
    52ec:	00068413          	mv	s0,a3
    52f0:	f60d02e3          	beqz	s10,5254 <.L28>

000052f4 <.L19>:
    52f4:	fc0c94e3          	bnez	s9,52bc <.L11>
    52f8:	e91ff06f          	j	5188 <.L9>

000052fc <.L18>:
    52fc:	000da703          	lw	a4,0(s11)
    5300:	004da783          	lw	a5,4(s11)
    5304:	fffc8c93          	addi	s9,s9,-1
    5308:	00e42023          	sw	a4,0(s0)
    530c:	00f42223          	sw	a5,4(s0)
    5310:	008d8d93          	addi	s11,s11,8
    5314:	00068413          	mv	s0,a3
    5318:	fddff06f          	j	52f4 <.L19>

0000531c <.L20>:
    531c:	000d8793          	mv	a5,s11
    5320:	fffc8c93          	addi	s9,s9,-1
    5324:	013d8db3          	add	s11,s11,s3
    5328:	ef1ff06f          	j	5218 <.L22>

0000532c <.L23>:
    532c:	0007a703          	lw	a4,0(a5)
    5330:	00478793          	addi	a5,a5,4
    5334:	00490913          	addi	s2,s2,4
    5338:	fee92e23          	sw	a4,-4(s2)
    533c:	eddff06f          	j	5218 <.L22>

00005340 <.L24>:
    5340:	000da783          	lw	a5,0(s11)
    5344:	fffc8c93          	addi	s9,s9,-1
    5348:	004d8d93          	addi	s11,s11,4
    534c:	00f42023          	sw	a5,0(s0)
    5350:	00070413          	mv	s0,a4
    5354:	e5dff06f          	j	51b0 <.L25>

00005358 <.L26>:
    5358:	000d8593          	mv	a1,s11
    535c:	00040513          	mv	a0,s0
    5360:	00000097          	auipc	ra,0x0
    5364:	000080e7          	jalr	ra # 5360 <.L26+0x8>
    5368:	01350433          	add	s0,a0,s3
    536c:	013d8db3          	add	s11,s11,s3
    5370:	fffc8c93          	addi	s9,s9,-1

00005374 <.L54>:
    5374:	e00c8ae3          	beqz	s9,5188 <.L9>

00005378 <.L13>:
    5378:	000c0613          	mv	a2,s8
    537c:	000d8593          	mv	a1,s11
    5380:	00048513          	mv	a0,s1
    5384:	000b80e7          	jalr	s7
    5388:	00098613          	mv	a2,s3
    538c:	fca046e3          	bgtz	a0,5358 <.L26>
    5390:	00048593          	mv	a1,s1
    5394:	00040513          	mv	a0,s0
    5398:	00000097          	auipc	ra,0x0
    539c:	000080e7          	jalr	ra # 5398 <.L13+0x20>
    53a0:	fffd0d13          	addi	s10,s10,-1
    53a4:	01350433          	add	s0,a0,s3
    53a8:	013484b3          	add	s1,s1,s3
    53ac:	fc0d16e3          	bnez	s10,5378 <.L13>
    53b0:	ea5ff06f          	j	5254 <.L28>

000053b4 <.L1>:
    53b4:	00008067          	ret

000053b8 <__qsort_r>:
    53b8:	fb010113          	addi	sp,sp,-80
    53bc:	04812423          	sw	s0,72(sp)
    53c0:	04912223          	sw	s1,68(sp)
    53c4:	05212023          	sw	s2,64(sp)
    53c8:	03312e23          	sw	s3,60(sp)
    53cc:	03412c23          	sw	s4,56(sp)
    53d0:	03512a23          	sw	s5,52(sp)
    53d4:	03612823          	sw	s6,48(sp)
    53d8:	04112623          	sw	ra,76(sp)
    53dc:	03712623          	sw	s7,44(sp)
    53e0:	03812423          	sw	s8,40(sp)
    53e4:	03912223          	sw	s9,36(sp)
    53e8:	03a12023          	sw	s10,32(sp)
    53ec:	05010413          	addi	s0,sp,80
    53f0:	02000793          	li	a5,32
    53f4:	02c58933          	mul	s2,a1,a2
    53f8:	00050993          	mv	s3,a0
    53fc:	00058a13          	mv	s4,a1
    5400:	00060493          	mv	s1,a2
    5404:	00068b13          	mv	s6,a3
    5408:	00070a93          	mv	s5,a4
    540c:	00c7f663          	bgeu	a5,a2,5418 <.L57>
    5410:	00359913          	slli	s2,a1,0x3
    5414:	00c90933          	add	s2,s2,a2

00005418 <.L57>:
    5418:	3ff00793          	li	a5,1023
    541c:	0927ec63          	bltu	a5,s2,54b4 <.L58>
    5420:	01790913          	addi	s2,s2,23
    5424:	ff097913          	andi	s2,s2,-16
    5428:	41210133          	sub	sp,sp,s2
    542c:	00f10913          	addi	s2,sp,15
    5430:	ff097913          	andi	s2,s2,-16
    5434:	00000b93          	li	s7,0

00005438 <.L59>:
    5438:	00400793          	li	a5,4
    543c:	fd242623          	sw	s2,-52(s0)
    5440:	fa942e23          	sw	s1,-68(s0)
    5444:	fcf42023          	sw	a5,-64(s0)
    5448:	fd642223          	sw	s6,-60(s0)
    544c:	fd542423          	sw	s5,-56(s0)
    5450:	02000713          	li	a4,32
    5454:	1e977463          	bgeu	a4,s1,563c <.L65>
    5458:	002a1713          	slli	a4,s4,0x2
    545c:	00e90933          	add	s2,s2,a4
    5460:	00e90d33          	add	s10,s2,a4
    5464:	00090793          	mv	a5,s2
    5468:	00098693          	mv	a3,s3

0000546c <.L66>:
    546c:	13a7e863          	bltu	a5,s10,559c <.L67>
    5470:	fcc42583          	lw	a1,-52(s0)
    5474:	00400793          	li	a5,4
    5478:	faf42e23          	sw	a5,-68(s0)
    547c:	000a0613          	mv	a2,s4
    5480:	00300793          	li	a5,3
    5484:	00e585b3          	add	a1,a1,a4
    5488:	fbc40513          	addi	a0,s0,-68
    548c:	fcf42023          	sw	a5,-64(s0)
    5490:	00098b13          	mv	s6,s3
    5494:	00000097          	auipc	ra,0x0
    5498:	000080e7          	jalr	ra # 5494 <.L66+0x28>
    549c:	00000c13          	li	s8,0

000054a0 <.L68>:
    54a0:	114c1663          	bne	s8,s4,55ac <.L71>

000054a4 <.L72>:
    54a4:	000b8513          	mv	a0,s7
    54a8:	00000097          	auipc	ra,0x0
    54ac:	000080e7          	jalr	ra # 54a8 <.L72+0x4>
    54b0:	07c0006f          	j	552c <.L55>

000054b4 <.L58>:
    54b4:	00000b97          	auipc	s7,0x0
    54b8:	000b8b93          	mv	s7,s7
    54bc:	000ba783          	lw	a5,0(s7) # 54b4 <.L58>
    54c0:	04079063          	bnez	a5,5500 <.L60>
    54c4:	05500513          	li	a0,85
    54c8:	00000097          	auipc	ra,0x0
    54cc:	000080e7          	jalr	ra # 54c8 <.L58+0x14>
    54d0:	fff00793          	li	a5,-1
    54d4:	00f51663          	bne	a0,a5,54e0 <.L61>
    54d8:	80000537          	lui	a0,0x80000
    54dc:	fff54513          	not	a0,a0

000054e0 <.L61>:
    54e0:	00400793          	li	a5,4
    54e4:	02f54533          	div	a0,a0,a5
    54e8:	00aba223          	sw	a0,4(s7)
    54ec:	0ff0000f          	fence
    54f0:	01e00513          	li	a0,30
    54f4:	00000097          	auipc	ra,0x0
    54f8:	000080e7          	jalr	ra # 54f4 <.L61+0x14>
